(dp0
((I1
S'4'
p1
tp2
(S'blocked 3'
p3
S'6'
p4
tp5
S'False'
p6
S'True'
p7
tp8
F-1123.9958365243901
s((I1
S'1'
p9
tp10
(S'open 2'
p11
S'13'
p12
tp13
g6
g7
tp14
F-371.76270065454713
s((I1
S'3'
p15
tp16
(S'blocked 2'
p17
g4
tp18
g6
g6
tp19
F17136.366569256348
s((I1
S'2'
p20
tp21
(S'blocked 3'
p22
S'9'
p23
tp24
g7
g7
tp25
F3022.637773057993
s((I1
S'11'
p26
tp27
(S'blocked 2'
p28
S'9'
p29
tp30
S'True'
p31
S'False'
p32
tp33
F356.8156486708837
s((I0
g1
tp34
(S'blocked 2'
p35
g1
tp36
g6
g7
tp37
F-2262.9963576909126
s((I0
S'4'
p38
tp39
(S'open 2'
p40
S'11'
p41
tp42
g32
g32
tp43
F305.7752057697435
s((I1
g20
tp44
(S'blocked 3'
p45
g15
tp46
g6
g7
tp47
F9402.71596975435
s((I0
S'1'
p48
tp49
(S'open 2'
p50
S'4'
p51
tp52
S'True'
p53
S'False'
p54
tp55
F-4191.791464965698
s((I1
g1
tp56
(S'blocked 2'
p57
g4
tp58
g7
g6
tp59
F3847.3334774482237
s((I0
g1
tp60
(S'open 2'
p61
g1
tp62
g7
g6
tp63
F-408.9292248025786
s((I1
g20
tp64
(S'blocked 3'
p65
g20
tp66
g6
g7
tp67
F-20858.559761586675
s((I0
S'6'
p68
tp69
(g40
S'2'
p70
tp71
g31
g31
tp72
F-414.173730876847
s((I0
g4
tp73
(S'blocked 2'
p74
S'14'
p75
tp76
g7
g7
tp77
F-53.34940214710669
s((I0
g1
tp78
(g35
g15
tp79
g6
g7
tp80
F-4444.64951758455
s((I0
g9
tp81
(S'blocked 3'
p82
g23
tp83
g7
g6
tp84
F-1149.3597427995346
s((I0
S'3'
p85
tp86
(S'blocked 3'
p87
S'11'
p88
tp89
g31
g31
tp90
F-640.3345272433631
s((I1
S'1'
p91
tp92
(S'open 2'
p93
S'3'
p94
tp95
S'False'
p96
S'True'
p97
tp98
F-3715.2854163703246
s((I0
g68
tp99
(S'blocked 2'
p100
S'11'
p101
tp102
g31
g31
tp103
F-432.4231290072073
s((I1
g15
tp104
(S'open 2'
p105
g20
tp106
g6
g6
tp107
F-9891.820126803115
s(S'open 2'
p108
I2
I01
I00
tp109
F24903.853916653847
s((I0
g29
tp110
(g100
S'10'
p111
tp112
g31
g31
tp113
F-221.3774669886764
s((I1
S'5'
p114
tp115
(S'open 2'
p116
S'3'
p117
tp118
S'True'
p119
g119
tp120
F-1789.591906830577
s(S'blocked 2'
p121
I3
I01
I01
tp122
F15635.632726929618
s((I0
S'13'
p123
tp124
(g74
g9
tp125
g7
g6
tp126
F543.0020935093795
s((I1
g9
tp127
(S'blocked 4'
p128
g23
tp129
g6
g7
tp130
F945.0552493342528
s((I1
S'1'
p131
tp132
(S'open 3'
p133
S'7'
p134
tp135
S'True'
p136
g136
tp137
F2097.929139867389
s((I0
g51
tp138
(S'blocked 2'
p139
g48
tp140
g53
g53
tp141
F5530.011617044102
s((I1
g91
tp142
(S'open 4'
p143
g91
tp144
g97
g96
tp145
F8563.389104720838
s((I1
S'8'
p146
tp147
(S'blocked 2'
p148
S'3'
p149
tp150
S'False'
p151
g136
tp152
F40.75561223744981
s((I1
S'1'
p153
tp154
(S'open 4'
p155
S'13'
p156
tp157
g31
g31
tp158
F229.91481318641047
s(g57
I5
I00
I00
tp159
F-20683.954318481326
s((I1
g9
tp160
(S'open 3'
p161
g4
tp162
g7
g7
tp163
F8475.498894792008
s((I0
g68
tp164
(S'blocked 2'
p165
S'5'
p166
tp167
g32
g32
tp168
F516.7643182185674
s((I0
g91
tp169
(S'open 3'
p170
g91
tp171
g96
g97
tp172
F16259.107952877363
s(g65
I2
I01
I01
tp173
F13136.435731441263
s((I1
S'6'
p174
tp175
(g148
g149
tp176
g151
g151
tp177
F-7348.420032174392
s((I0
S'7'
p178
tp179
(g100
S'10'
p180
tp181
g32
g32
tp182
F42.50379014139002
s((I1
g9
tp183
(S'open 2'
p184
S'16'
p185
tp186
g7
g7
tp187
F-298.74469896835745
s((I0
g9
tp188
(S'blocked 3'
p189
S'13'
p190
tp191
g7
g7
tp192
F-651.868993347467
s(S'blocked 2'
p193
I6
I00
I01
tp194
F-15749.615676750407
s((I1
g23
tp195
(S'blocked 2'
p196
g20
tp197
g7
g6
tp198
F650.3319463583076
s((I1
g9
tp199
(S'open 2'
p200
S'11'
p201
tp202
g7
g6
tp203
F-1375.6657010695403
s((I1
g9
tp204
(S'blocked 3'
p205
g1
tp206
g6
g6
tp207
F4006.6350000115744
s((I0
g166
tp208
(g100
S'10'
p209
tp210
g32
g32
tp211
F-1091.984992515568
s((I0
g15
tp212
(S'open 2'
p213
S'5'
p214
tp215
g6
g6
tp216
F6303.761558853825
s((I1
g9
tp217
(g22
g23
tp218
g7
g6
tp219
F1887.8760802290785
s(g196
I8
I01
I00
tp220
F-955.2580043088785
s((I1
g23
tp221
(g196
g1
tp222
g7
g6
tp223
F-962.548924794118
s((I1
g15
tp224
(g57
g214
tp225
g7
g7
tp226
F10843.464213997217
s((I0
g20
tp227
(S'blocked 3'
p228
g20
tp229
g6
g7
tp230
F492.6274935910437
s((I0
g94
tp231
(g121
g91
tp232
g96
g96
tp233
F2478.074328440602
s((I1
g9
tp234
(g184
S'16'
p235
tp236
g6
g7
tp237
F386.02266834854913
s((I1
S'14'
p238
tp239
(g196
g20
tp240
g6
g6
tp241
F42.92131248041748
s((I0
g9
tp242
(g228
S'7'
p243
tp244
g7
g7
tp245
F-1184.1633624043634
s((I1
g9
tp246
(S'open 3'
p247
S'11'
p248
tp249
g7
g7
tp250
F-1010.4071864517063
s((I1
g1
tp251
(g57
g15
tp252
g7
g7
tp253
F10921.22753673046
s(S'open 4'
p254
I1
I00
I00
tp255
F-81259.77190681835
s((I1
g91
tp256
(g254
S'2'
p257
tp258
g96
g96
tp259
F34506.58542709082
s((I1
S'10'
p260
tp261
(g28
g166
tp262
g32
g32
tp263
F-101.79649879528824
s((I0
g85
tp264
(g40
S'8'
p265
tp266
g32
g32
tp267
F219.99426153718747
s((I1
S'2'
p268
tp269
(S'blocked 2'
p270
g268
tp271
g54
g54
tp272
F5644.266966554802
s((I1
g20
tp273
(g65
g9
tp274
g7
g6
tp275
F-3217.012524724568
s((I1
g9
tp276
(g205
g15
tp277
g7
g6
tp278
F10636.151671229321
s(g193
I7
I01
I00
tp279
F1424.6942557164589
s((I0
S'4'
p280
tp281
(S'blocked 2'
p282
g134
tp283
g151
g136
tp284
F-549.7302069689874
s((I1
g9
tp285
(S'open 2'
p286
g4
tp287
g6
g6
tp288
F4610.704434758829
s((I1
g20
tp289
(S'open 3'
p290
g15
tp291
g7
g6
tp292
F9457.828886561645
s(g193
I9
I00
I01
tp293
F645.2814363818404
s((I0
g257
tp294
(S'blocked 2'
p295
g257
tp296
g97
g96
tp297
F-9684.781977684928
s((I0
S'4'
p298
tp299
(S'blocked 3'
p300
g298
tp301
S'False'
p302
g302
tp303
F-5474.592730679117
s((I0
g4
tp304
(g213
g1
tp305
g7
g7
tp306
F1563.8186407960243
s((I1
S'4'
p307
tp308
(S'open 3'
p309
S'1'
p310
tp311
S'True'
p312
S'False'
p313
tp314
F2030.4983366576682
s((I0
g9
tp315
(g189
S'11'
p316
tp317
g6
g7
tp318
F2479.6770372814653
s((I0
g214
tp319
(g74
S'8'
p320
tp321
g7
g7
tp322
F-249.3376348514795
s((I0
g70
tp323
(S'open 3'
p324
g70
tp325
g31
g32
tp326
F-2769.4489290290026
s((I0
g9
tp327
(S'open 2'
p328
S'14'
p329
tp330
g7
g7
tp331
F-1137.6532189708523
s((I1
S'13'
p332
tp333
(g28
g166
tp334
g31
g31
tp335
F817.1069970104047
s((I1
g9
tp336
(S'blocked 4'
p337
S'16'
p338
tp339
g7
g6
tp340
F-156.02636105185502
s((I1
S'11'
p341
tp342
(g28
g29
tp343
g32
g31
tp344
F-94.81353129060956
s((I0
S'10'
p345
tp346
(g74
S'14'
p347
tp348
g7
g7
tp349
F-291.1382271417025
s((I1
g1
tp350
(S'open 2'
p351
g15
tp352
g7
g6
tp353
F31871.58274025447
s((I1
g23
tp354
(g196
g9
tp355
g7
g6
tp356
F908.8637392281108
s((I1
g20
tp357
(g45
g214
tp358
g6
g6
tp359
F-2730.5113649627065
s((I1
g15
tp360
(S'blocked 3'
p361
g15
tp362
g6
g7
tp363
F-9215.687857529076
s((I1
g214
tp364
(g57
g9
tp365
g7
g6
tp366
F9515.514320379876
s((I1
g94
tp367
(S'blocked 2'
p368
g91
tp369
g96
g97
tp370
F-2633.249866931135
s(g193
I10
I00
I00
tp371
F2014.7042275818105
s((I1
g15
tp372
(g286
g15
tp373
g6
g6
tp374
F8096.511873104613
s((I1
g166
tp375
(S'blocked 3'
p376
S'13'
p377
tp378
g32
g32
tp379
F-610.5128654054977
s((I0
g85
tp380
(g87
g70
tp381
g32
g32
tp382
F2579.7016932010943
s((I1
g20
tp383
(S'blocked 2'
p384
g15
tp385
g6
g6
tp386
F-15136.770286583265
s((I0
g85
tp387
(g87
S'11'
p388
tp389
g32
g32
tp390
F635.2189228154344
s(g196
I12
I01
I01
tp391
F-3056.0967229007465
s((I0
g68
tp392
(g40
S'12'
p393
tp394
g31
g32
tp395
F1607.7997393523988
s((I1
g9
tp396
(g11
S'13'
p397
tp398
g7
g6
tp399
F725.6510210384768
s((I1
g9
tp400
(S'blocked 3'
p401
S'15'
p402
tp403
g6
g6
tp404
F-404.42496553648675
s((I1
g9
tp405
(g337
S'16'
p406
tp407
g6
g7
tp408
F571.292112649536
s((I1
g146
tp409
(g148
g280
tp410
g151
g136
tp411
F-3226.097945584636
s((I0
S'2'
p412
tp413
(g282
g174
tp414
g136
g151
tp415
F-2317.0106407732646
s((I0
g9
tp416
(g82
g1
tp417
g6
g7
tp418
F-4287.87078274244
s((I0
g20
tp419
(g35
g15
tp420
g6
g6
tp421
F3206.680285502878
s((I1
S'4'
p422
tp423
(g368
g91
tp424
g96
g96
tp425
F2710.942323662389
s((I1
g85
tp426
(S'open 3'
p427
g153
tp428
g31
g32
tp429
F4136.5117161828275
s((I1
g15
tp430
(g3
g4
tp431
g6
g7
tp432
F-605.542952345196
s((I1
S'10'
p433
tp434
(g28
g153
tp435
g32
g31
tp436
F1214.2668538834077
s((I0
g4
tp437
(g213
g1
tp438
g6
g7
tp439
F346.19991462316204
s((I1
g94
tp440
(g368
g91
tp441
g97
g97
tp442
F5198.050207865188
s((I0
g38
tp443
(g40
g29
tp444
g31
g31
tp445
F174.26522510270723
s((I1
g174
tp446
(S'blocked 2'
p447
g174
tp448
g151
g136
tp449
F-956.7699165375252
s((I0
g298
tp450
(S'open 2'
p451
S'3'
p452
tp453
g302
g302
tp454
F-5109.58854676328
s((I1
S'11'
p455
tp456
(g196
g20
tp457
g6
g7
tp458
F178.45739357748812
s((I1
g214
tp459
(S'blocked 3'
p460
g1
tp461
g7
g6
tp462
F1309.2318150548047
s((I1
g48
tp463
(g270
g51
tp464
g54
g54
tp465
F-12838.589776935527
s((I0
g214
tp466
(g193
g15
tp467
g6
g6
tp468
F9897.31272367687
s((I1
g20
tp469
(g45
g214
tp470
g7
g7
tp471
F839.0899993752389
s((I1
g307
tp472
(g309
S'2'
p473
tp474
g313
g312
tp475
F-510.4433874421088
s((I0
g68
tp476
(g40
g70
tp477
g32
g32
tp478
F211.55074972969908
s((I0
g1
tp479
(g213
g23
tp480
g6
g7
tp481
F796.0054649748295
s((I1
g243
tp482
(g196
g20
tp483
g7
g6
tp484
F2891.053260256531
s((I1
S'10'
p485
tp486
(g28
g29
tp487
g32
g32
tp488
F-778.9986470595868
s((I0
g214
tp489
(g213
g9
tp490
g7
g7
tp491
F-98.06015349929925
s((I0
S'5'
p492
tp493
(S'open 2'
p494
g268
tp495
g53
g54
tp496
F3104.195900046675
s((I0
g1
tp497
(g61
g15
tp498
g6
g7
tp499
F10086.795067602032
s((I1
g9
tp500
(S'blocked 3'
p501
g214
tp502
g7
g6
tp503
F5364.183981418481
s((I1
g20
tp504
(S'open 3'
p505
S'12'
p506
tp507
g7
g6
tp508
F125.53344247406272
s((I1
g268
tp509
(S'open 3'
p510
g51
tp511
g53
g53
tp512
F-2231.040105275635
s((I1
S'10'
p513
tp514
(g28
g29
tp515
g31
g32
tp516
F-28.658319908583735
s((I0
g492
tp517
(g494
g48
tp518
g54
g53
tp519
F-7143.7450423144055
s((I0
g85
tp520
(g87
g178
tp521
g31
g32
tp522
F1486.3781543413086
s((I1
S'13'
p523
tp524
(g196
S'11'
p525
tp526
g7
g7
tp527
F237.8505429027726
s((I0
g320
tp528
(g74
g20
tp529
g6
g7
tp530
F-366.6905869366434
s((I1
S'11'
p531
tp532
(g196
g1
tp533
g7
g7
tp534
F136.17756193818866
s((I1
g20
tp535
(S'blocked 3'
p536
S'11'
p537
tp538
g6
g6
tp539
F1782.575256247126
s((I0
g243
tp540
(g74
g9
tp541
g6
g7
tp542
F-3430.5207633121113
s((I0
g1
tp543
(g213
g4
tp544
g7
g6
tp545
F-6.898950302718617
s((I0
g9
tp546
(S'blocked 4'
p547
S'14'
p548
tp549
g6
g7
tp550
F-956.3373093224341
s((I0
g243
tp551
(g193
g15
tp552
g7
g7
tp553
F-825.6402446807567
s((I0
g131
tp554
(S'open 4'
p555
S'5'
p556
tp557
g151
g151
tp558
F-6279.724488115251
s((I1
S'6'
p559
tp560
(S'open 2'
p561
S'1'
p562
tp563
S'True'
p564
g564
tp565
F5981.315384274522
s((I1
g149
tp566
(S'open 2'
p567
g146
tp568
g151
g151
tp569
F-7172.253792258047
s((I0
g9
tp570
(g328
S'13'
p571
tp572
g7
g6
tp573
F866.6750526899164
s((I0
g9
tp574
(S'blocked 3'
p575
S'15'
p576
tp577
g7
g6
tp578
F-1558.373350196274
s((I0
g91
tp579
(S'blocked 2'
p580
g91
tp581
g97
g96
tp582
F-2156.712584968192
s((I1
g153
tp583
(S'blocked 4'
p584
g68
tp585
g31
g31
tp586
F1702.738362131768
s((I0
g320
tp587
(g193
g20
tp588
g7
g7
tp589
F-745.8967899176313
s((I1
g15
tp590
(g286
g1
tp591
g6
g7
tp592
F-7409.674351948838
s((I0
g134
tp593
(S'blocked 2'
p594
g174
tp595
g136
g136
tp596
F339.92530616810166
s((I0
g166
tp597
(g40
g265
tp598
g31
g32
tp599
F388.0702214530538
s((I0
g1
tp600
(g74
S'11'
p601
tp602
g7
g6
tp603
F-26.13875496717202
s((I0
g298
tp604
(g300
S'2'
p605
tp606
S'True'
p607
g607
tp608
F833.2939190795681
s((I0
g243
tp609
(g193
g15
tp610
g6
g7
tp611
F-618.9893777353515
s((I0
g280
tp612
(g282
g146
tp613
g136
g136
tp614
F-1967.5100996133106
s((I1
g20
tp615
(g536
S'13'
p616
tp617
g7
g7
tp618
F-93.73370979733747
s((I0
g85
tp619
(g87
g68
tp620
g32
g32
tp621
F298.55327109589024
s((I1
g23
tp622
(g196
g1
tp623
g7
g7
tp624
F-42.23145048951751
s((I0
g38
tp625
(S'open 2'
p626
g178
tp627
g31
g31
tp628
F1104.1040795522563
s((I1
g1
tp629
(g57
g1
tp630
g6
g6
tp631
F112.56324655344142
s((I1
g20
tp632
(g384
g15
tp633
g7
g7
tp634
F-993.7807152276303
s((I1
g15
tp635
(g286
S'10'
p636
tp637
g7
g7
tp638
F-233.550602925656
s((I1
g20
tp639
(S'blocked 3'
p640
S'11'
p641
tp642
g7
g6
tp643
F1134.7645030943777
s((I1
g422
tp644
(g368
g91
tp645
g97
g96
tp646
F-5138.142343184252
s((I1
g153
tp647
(g155
g29
tp648
g31
g32
tp649
F138.08959791531052
s((I1
g20
tp650
(g286
g214
tp651
g6
g7
tp652
F11451.73023729343
s((I1
S'4'
p653
tp654
(S'open 3'
p655
g653
tp656
S'False'
p657
g657
tp658
F-6464.208162629674
s((I1
g9
tp659
(g11
S'12'
p660
tp661
g6
g6
tp662
F2558.9429640675003
s((I0
g85
tp663
(g87
g153
tp664
g31
g31
tp665
F-4493.370473239347
s((I1
S'10'
p666
tp667
(g28
g178
tp668
g31
g32
tp669
F37.37314426022311
s((I0
g4
tp670
(g193
g214
tp671
g6
g7
tp672
F-444.42391272168436
s((I0
g153
tp673
(S'open 4'
p674
S'11'
p675
tp676
g31
g31
tp677
F1392.4665685370908
s((I0
S'10'
p678
tp679
(g193
g9
tp680
g7
g6
tp681
F-6104.410482901619
s((I0
g257
tp682
(g108
g257
tp683
g96
g97
tp684
F12045.327271974425
s((I0
g85
tp685
(g87
g29
tp686
g32
g32
tp687
F496.9221223730151
s((I0
S'13'
p688
tp689
(g74
S'12'
p690
tp691
g7
g6
tp692
F752.7879993092582
s((I1
S'3'
p693
tp694
(S'open 3'
p695
S'5'
p696
tp697
g313
g313
tp698
F-6512.6565471307185
s((I1
S'11'
p699
tp700
(g28
g85
tp701
g31
g31
tp702
F543.0542291176238
s((I0
g29
tp703
(g100
g38
tp704
g31
g31
tp705
F-176.68727598519456
s(g309
I4
I01
I01
tp706
F16584.010574310705
s((I0
g4
tp707
(g213
g9
tp708
g6
g7
tp709
F1119.9171417238845
s((I0
g91
tp710
(S'blocked 2'
p711
g422
tp712
g97
g97
tp713
F-4578.040808363366
s((I0
g20
tp714
(g328
S'11'
p715
tp716
g6
g7
tp717
F-131.35485280909444
s((I0
g320
tp718
(g193
g1
tp719
g6
g6
tp720
F-133.36006087472566
s((I1
g1
tp721
(g57
g320
tp722
g6
g7
tp723
F761.168470746892
s((I1
g320
tp724
(g196
g9
tp725
g6
g7
tp726
F-1320.0953357317326
s((I1
g9
tp727
(g536
S'14'
p728
tp729
g6
g7
tp730
F-1806.0310200554568
s((I1
S'12'
p731
tp732
(g28
g29
tp733
g31
g31
tp734
F-1224.2810834607444
s((I0
g1
tp735
(g213
g4
tp736
g6
g7
tp737
F-648.4971268657059
s((I1
g174
tp738
(g148
g131
tp739
g151
g136
tp740
F-5467.334286749568
s((I1
g243
tp741
(g196
g1
tp742
g7
g6
tp743
F-1300.3160745938553
s(g193
I10
I01
I00
tp744
F-1504.5660151152717
s((I0
g9
tp745
(S'blocked 4'
p746
g9
tp747
g7
g6
tp748
F-5803.583991059113
s((I0
g15
tp749
(g193
g15
tp750
g6
g7
tp751
F6403.657430248065
s((I0
g131
tp752
(g555
g131
tp753
g136
g151
tp754
F14667.702358933399
s((I1
g15
tp755
(S'blocked 3'
p756
g9
tp757
g6
g7
tp758
F-7601.270761157795
s((I1
g166
tp759
(S'open 2'
p760
g70
tp761
g32
g32
tp762
F-5762.489588817236
s((I1
g131
tp763
(S'open 2'
p764
g146
tp765
g136
g151
tp766
F-1541.2063860256721
s((I1
g29
tp767
(g28
g178
tp768
g31
g31
tp769
F431.81131738628756
s((I0
g178
tp770
(g100
g29
tp771
g31
g31
tp772
F-234.1346993327151
s((I0
g85
tp773
(g87
g166
tp774
g32
g32
tp775
F-795.4729337041064
s((I1
g20
tp776
(g11
S'11'
p777
tp778
g7
g6
tp779
F198.47158260006407
s((I0
g243
tp780
(g74
g9
tp781
g7
g7
tp782
F744.0026717635002
s((I0
g280
tp783
(g282
g174
tp784
g136
g151
tp785
F-1046.9035129759677
s((I0
g265
tp786
(g100
S'10'
p787
tp788
g32
g32
tp789
F919.6117488573444
s((I1
S'10'
p790
tp791
(g28
g70
tp792
g31
g32
tp793
F-532.9808680958554
s((I0
g214
tp794
(g213
g214
tp795
g7
g6
tp796
F-1273.374226289318
s((I1
S'12'
p797
tp798
(g196
g9
tp799
g7
g6
tp800
F211.6061439812006
s((I1
S'11'
p801
tp802
(g28
g85
tp803
g32
g31
tp804
F-674.1462583440214
s((I1
g20
tp805
(g505
S'13'
p806
tp807
g6
g7
tp808
F-647.4402180244001
s((I1
g1
tp809
(g57
g4
tp810
g6
g7
tp811
F767.2792486268099
s((I1
g20
tp812
(S'open 2'
p813
g4
tp814
g6
g7
tp815
F-4224.78045732109
s((I0
g70
tp816
(g87
g29
tp817
g31
g31
tp818
F232.35684586078938
s((I0
g298
tp819
(g300
g298
tp820
g302
g607
tp821
F-3269.7684135797895
s((I1
g131
tp822
(S'blocked 4'
p823
g146
tp824
g136
g136
tp825
F90.8240355434129
s((I0
g85
tp826
(g87
g68
tp827
g31
g31
tp828
F-380.2251970490987
s((I1
g153
tp829
(g584
g68
tp830
g32
g32
tp831
F-1901.4896916391829
s((I1
S'13'
p832
tp833
(g28
g38
tp834
g31
g32
tp835
F311.1849844519551
s((I1
g9
tp836
(g184
S'16'
p837
tp838
g6
g6
tp839
F247.96702778788548
s((I0
g243
tp840
(g193
g20
tp841
g6
g7
tp842
F872.3203374119298
s((I0
g131
tp843
(g555
g131
tp844
g151
g151
tp845
F-74736.4696107359
s((I1
S'11'
p846
tp847
(g196
g1
tp848
g6
g6
tp849
F-339.3390348270153
s((I1
S'14'
p850
tp851
(g196
g320
tp852
g6
g7
tp853
F-634.7332099677192
s((I1
g68
tp854
(g28
g166
tp855
g31
g31
tp856
F63.96518112187607
s((I0
g9
tp857
(S'open 3'
p858
g4
tp859
g6
g7
tp860
F-3439.9341481841243
s((I0
g91
tp861
(S'blocked 3'
p862
g91
tp863
g96
g97
tp864
F10787.494289718597
s((I0
S'1'
p865
tp866
(S'blocked 2'
p867
S'7'
p868
tp869
S'True'
p870
S'False'
p871
tp872
F-718.6239402816835
s((I0
S'3'
p873
tp874
(g139
g268
tp875
g54
g54
tp876
F-21588.711754455093
s((I0
g243
tp877
(g74
S'15'
p878
tp879
g7
g7
tp880
F621.3493390415442
s((I1
S'11'
p881
tp882
(g28
g166
tp883
g32
g31
tp884
F1419.230400368756
s((I0
g4
tp885
(S'blocked 2'
p886
g1
tp887
g6
g6
tp888
F29276.426626870736
s((I0
g9
tp889
(S'open 2'
p890
g4
tp891
g6
g7
tp892
F-4800.757329101172
s((I0
g91
tp893
(g108
g257
tp894
g97
g97
tp895
F-3781.5515747460886
s((I1
S'16'
p896
tp897
(g196
g9
tp898
g6
g6
tp899
F282.5806434536501
s((I0
g85
tp900
(g40
S'11'
p901
tp902
g31
g32
tp903
F-2775.3625069409572
s((I1
S'6'
p904
tp905
(S'open 2'
p906
g605
tp907
g607
g302
tp908
F2790.5627498408703
s((I0
g85
tp909
(g87
S'10'
p910
tp911
g32
g31
tp912
F818.4087160725934
s((I0
g166
tp913
(g40
g70
tp914
g31
g31
tp915
F-493.4878959161797
s((I0
g153
tp916
(S'blocked 4'
p917
g178
tp918
g31
g32
tp919
F294.6253591014764
s((I1
g9
tp920
(S'blocked 4'
p921
S'10'
p922
tp923
g6
g7
tp924
F942.347750914564
s((I0
g9
tp925
(g328
S'16'
p926
tp927
g7
g6
tp928
F660.7048362791992
s(S'open 3'
p929
I1
I01
I01
tp930
F59563.967245678024
s((I0
g91
tp931
(g862
g91
tp932
g97
g97
tp933
F-38228.5022342055
s((I0
g1
tp934
(g74
g23
tp935
g7
g6
tp936
F137.42791775369113
s((I0
g9
tp937
(g328
S'12'
p938
tp939
g7
g6
tp940
F803.612944548623
s((I0
S'10'
p941
tp942
(g193
g20
tp943
g7
g7
tp944
F-402.0010941063952
s((I0
g1
tp945
(g35
g1
tp946
g7
g6
tp947
F605.4434627181254
s((I0
g9
tp948
(g328
g23
tp949
g7
g7
tp950
F-589.6391263572013
s((I1
g153
tp951
(S'open 3'
p952
S'10'
p953
tp954
g32
g32
tp955
F-297.1731468322036
s((I0
g9
tp956
(g328
g320
tp957
g7
g7
tp958
F-45.52422386128137
s((I1
S'13'
p959
tp960
(g28
g265
tp961
g32
g32
tp962
F-249.53203161730158
s(g213
I4
I01
I01
tp963
F32543.019812442646
s((I0
g265
tp964
(g100
S'10'
p965
tp966
g31
g31
tp967
F-667.1043620819728
s((I1
g653
tp968
(g655
S'3'
p969
tp970
g657
S'True'
p971
tp972
F-2967.4437211117215
s((I0
g153
tp973
(g917
g178
tp974
g32
g31
tp975
F-98.98222295056911
s((I0
g243
tp976
(g74
S'16'
p977
tp978
g7
g6
tp979
F391.75413828367084
s((I0
g70
tp980
(g87
g38
tp981
g32
g31
tp982
F972.4903701187652
s((I0
g91
tp983
(S'open 2'
p984
g91
tp985
g96
g96
tp986
F31537.75494971329
s((I0
S'13'
p987
tp988
(g74
S'12'
p989
tp990
g6
g7
tp991
F-1844.922816793561
s((I0
g9
tp992
(g328
S'10'
p993
tp994
g7
g6
tp995
F-117.02583336743169
s((I1
g9
tp996
(S'open 3'
p997
g23
tp998
g6
g7
tp999
F-669.0148376177517
s((I0
g68
tp1000
(g100
g29
tp1001
g32
g31
tp1002
F247.48609858855374
s((I1
S'13'
p1003
tp1004
(g196
g20
tp1005
g7
g7
tp1006
F403.33418756206527
s((I0
g214
tp1007
(g74
S'13'
p1008
tp1009
g6
g6
tp1010
F-32.95268840343213
s((I1
g1
tp1011
(g57
g23
tp1012
g7
g7
tp1013
F170.8696308200181
s((I0
g70
tp1014
(g87
g68
tp1015
g31
g31
tp1016
F2735.9272628985373
s((I0
g91
tp1017
(g711
g422
tp1018
g96
g96
tp1019
F5283.769588742168
s((I1
S'9'
p1020
tp1021
(S'blocked 2'
p1022
S'5'
p1023
tp1024
S'True'
p1025
g1025
tp1026
F-75.69072524764148
s((I0
S'1'
p1027
tp1028
(S'blocked 2'
p1029
S'5'
p1030
tp1031
S'False'
p1032
g1032
tp1033
F2857.405447907115
s(S'open 2'
p1034
I1
I00
I01
tp1035
F-3114.4056678212005
s((I1
g298
tp1036
(S'open 2'
p1037
g904
tp1038
g302
g607
tp1039
F-17807.44803636949
s((I0
g298
tp1040
(g300
g452
tp1041
g302
g302
tp1042
F-1673.6776426215906
s(S'open 2'
p1043
I3
I01
I00
tp1044
F40174.58438015648
s((I0
g20
tp1045
(g35
g15
tp1046
g7
g7
tp1047
F-488.6715329488782
s((I1
g20
tp1048
(g45
g1
tp1049
g6
g6
tp1050
F-1350.7564802229085
s((I0
g29
tp1051
(g100
g166
tp1052
g32
g31
tp1053
F741.4144460182351
s((I0
g70
tp1054
(g40
S'10'
p1055
tp1056
g32
g32
tp1057
F-180.6499900323655
s((I1
S'5'
p1058
tp1059
(S'open 2'
p1060
g1058
tp1061
S'True'
p1062
g1062
tp1063
F-284.67063922461773
s((I0
g265
tp1064
(g100
g166
tp1065
g32
g31
tp1066
F-128.84091133365894
s((I0
g68
tp1067
(g100
S'11'
p1068
tp1069
g31
g32
tp1070
F161.38806686950895
s((I0
g85
tp1071
(S'blocked 2'
p1072
S'10'
p1073
tp1074
g32
g32
tp1075
F-483.06038716707536
s((I1
g1
tp1076
(g756
g9
tp1077
g7
g7
tp1078
F-3342.9706953601994
s((I1
g1
tp1079
(g361
g15
tp1080
g7
g7
tp1081
F2659.1768804339213
s((I1
S'11'
p1082
tp1083
(g28
g265
tp1084
g32
g31
tp1085
F-376.76723540352384
s((I0
g1
tp1086
(g74
S'11'
p1087
tp1088
g6
g7
tp1089
F-289.90119420719896
s((I1
g91
tp1090
(S'blocked 4'
p1091
g422
tp1092
g97
g96
tp1093
F-312.33007444392365
s((I1
S'11'
p1094
tp1095
(g28
g68
tp1096
g32
g31
tp1097
F-588.8330340066242
s((I1
S'12'
p1098
tp1099
(g196
g214
tp1100
g6
g6
tp1101
F-93.2982197041446
s((I0
g131
tp1102
(S'blocked 3'
p1103
g556
tp1104
g136
g151
tp1105
F20665.346496451566
s((I1
g9
tp1106
(g501
g4
tp1107
g6
g6
tp1108
F5855.977517924968
s((I0
g178
tp1109
(g100
S'10'
p1110
tp1111
g32
g31
tp1112
F-1103.5717893862386
s((I1
g91
tp1113
(S'open 2'
p1114
g422
tp1115
g96
g97
tp1116
F7330.463634244335
s((I1
g9
tp1117
(g17
g4
tp1118
g6
g6
tp1119
F-1500.5972028304564
s((I0
g320
tp1120
(g74
g9
tp1121
g6
g7
tp1122
F164.2374038857352
s((I0
g68
tp1123
(g40
S'13'
p1124
tp1125
g31
g32
tp1126
F-681.5427346559097
s((I0
g91
tp1127
(g862
g257
tp1128
g96
g97
tp1129
F-1888.4212161318358
s(g580
I1
I01
I01
tp1130
F14389.057928233688
s((I0
g265
tp1131
(g100
g166
tp1132
g31
g32
tp1133
F404.74359283844996
s(g108
I2
I00
I01
tp1134
F-36938.298773180104
s((I1
g91
tp1135
(S'blocked 2'
p1136
g94
tp1137
g96
g97
tp1138
F-12719.86559700515
s(g121
I3
I00
I00
tp1139
F-11865.79833495626
s((I0
g134
tp1140
(g282
g146
tp1141
g136
g136
tp1142
F-75.19338881207806
s((I1
g153
tp1143
(S'blocked 2'
p1144
g166
tp1145
g32
g32
tp1146
F1900.0827003546083
s((I0
g178
tp1147
(g100
S'10'
p1148
tp1149
g31
g31
tp1150
F114.29659732345694
s(g756
I4
I01
I01
tp1151
F2168.25265268148
s((I0
g29
tp1152
(g100
g70
tp1153
g32
g32
tp1154
F368.37361887524065
s((I1
g1058
tp1155
(g1060
S'4'
p1156
tp1157
S'False'
p1158
g1158
tp1159
F1315.3647162392256
s((I0
g4
tp1160
(g886
g9
tp1161
g6
g6
tp1162
F4395.191568999617
s((I1
S'14'
p1163
tp1164
(g196
S'11'
p1165
tp1166
g6
g7
tp1167
F162.24314888082603
s(g65
I2
I00
I00
tp1168
F-34320.08566965581
s((I1
g257
tp1169
(g1114
g94
tp1170
g97
g96
tp1171
F24808.753943932872
s((I0
g91
tp1172
(S'blocked 3'
p1173
g94
tp1174
g96
g97
tp1175
F12291.019368626432
s((I0
g48
tp1176
(g50
g51
tp1177
g54
g53
tp1178
F-999.7867630898427
s((I0
g70
tp1179
(S'blocked 2'
p1180
g166
tp1181
g32
g31
tp1182
F-3480.302182816356
s((I1
g146
tp1183
(g148
g412
tp1184
g151
g136
tp1185
F203.41948415408285
s((I0
g1023
tp1186
(S'blocked 2'
p1187
g1020
tp1188
g1025
S'False'
p1189
tp1190
F-237.37170262414728
s(g368
I4
I00
I01
tp1191
F-238.97521926614604
s((I1
g91
tp1192
(S'blocked 2'
p1193
g257
tp1194
g97
g96
tp1195
F315.96635275791493
s((I1
g257
tp1196
(S'open 2'
p1197
g257
tp1198
g97
g96
tp1199
F27976.235182341403
s((I1
S'11'
p1200
tp1201
(g196
S'15'
p1202
tp1203
g6
g6
tp1204
F-2995.117598491969
s((I0
g149
tp1205
(g282
g146
tp1206
g136
g151
tp1207
F174.49849305747944
s(g193
I6
I01
I00
tp1208
F31927.281856999125
s((I1
g268
tp1209
(g270
g268
tp1210
g54
g53
tp1211
F-3855.666330468345
s((I0
g1
tp1212
(g61
g20
tp1213
g6
g7
tp1214
F4813.693570239337
s((I1
g174
tp1215
(g148
g412
tp1216
g151
g151
tp1217
F-10134.232875634203
s((I0
g29
tp1218
(g100
S'11'
p1219
tp1220
g32
g32
tp1221
F330.3110328072675
s(g862
I1
I00
I01
tp1222
F20788.208853844182
s((I0
g48
tp1223
(S'blocked 3'
p1224
g873
tp1225
g53
g53
tp1226
F5759.930010143735
s((I1
S'11'
p1227
tp1228
(g28
g265
tp1229
g31
g31
tp1230
F-710.1646689896265
s((I1
g320
tp1231
(g196
g20
tp1232
g7
g7
tp1233
F555.2786588366728
s((I0
g85
tp1234
(g87
S'10'
p1235
tp1236
g31
g32
tp1237
F-444.662530328649
s((I1
g1
tp1238
(g351
g20
tp1239
g6
g6
tp1240
F-3755.891054496069
s((I1
g9
tp1241
(S'blocked 4'
p1242
g214
tp1243
g6
g7
tp1244
F-121.72772147729631
s((I1
g214
tp1245
(S'blocked 2'
p1246
g15
tp1247
g6
g6
tp1248
F-9744.629842028127
s(g254
I1
I01
I01
tp1249
F75894.07309884718
s((I1
g15
tp1250
(g105
g9
tp1251
g7
g7
tp1252
F-13664.200418471646
s((I1
S'10'
p1253
tp1254
(g28
g68
tp1255
g32
g32
tp1256
F846.5142111579397
s((I0
g68
tp1257
(g40
g166
tp1258
g31
g31
tp1259
F-29.972736095978124
s((I0
g91
tp1260
(g295
g257
tp1261
g96
g97
tp1262
F-4819.607500705276
s((I0
g1
tp1263
(g213
g320
tp1264
g6
g6
tp1265
F-226.21996339060405
s((I0
g412
tp1266
(g282
g174
tp1267
g151
g151
tp1268
F-920.8022497617198
s((I0
g51
tp1269
(g139
g48
tp1270
g53
g54
tp1271
F-3845.7224261902948
s(g139
I5
I01
I00
tp1272
F-7945.944295443466
s((I1
g9
tp1273
(g536
S'10'
p1274
tp1275
g6
g6
tp1276
F-664.6357605552581
s((I1
g91
tp1277
(g1136
g94
tp1278
g97
g97
tp1279
F4167.690769561625
s((I1
g15
tp1280
(g361
g214
tp1281
g7
g7
tp1282
F4048.7247738769042
s((I1
g20
tp1283
(g22
g320
tp1284
g6
g6
tp1285
F-345.901573231705
s((I1
g9
tp1286
(g997
g23
tp1287
g7
g6
tp1288
F187.5072851004397
s(g193
I7
I00
I01
tp1289
F-20418.895373299383
s((I1
S'12'
p1290
tp1291
(g28
g38
tp1292
g31
g31
tp1293
F-1322.5190973425022
s((I1
g91
tp1294
(S'blocked 4'
p1295
g257
tp1296
g97
g97
tp1297
F-24640.67802738238
s((I1
g9
tp1298
(g505
S'12'
p1299
tp1300
g7
g7
tp1301
F-2405.706801927419
s((I0
g166
tp1302
(g100
g68
tp1303
g31
g32
tp1304
F-307.0302668528975
s((I0
g131
tp1305
(S'open 2'
p1306
g556
tp1307
g136
g136
tp1308
F6528.018242055572
s((I1
g146
tp1309
(g148
g280
tp1310
g151
g151
tp1311
F-1830.0525525218125
s((I1
g20
tp1312
(g286
g23
tp1313
g7
g7
tp1314
F1611.3949455512818
s((I0
g85
tp1315
(g87
g265
tp1316
g31
g31
tp1317
F-1026.0296419294675
s((I0
g412
tp1318
(g282
g174
tp1319
g136
g136
tp1320
F-1623.1718316687948
s((I0
g166
tp1321
(g100
S'11'
p1322
tp1323
g31
g31
tp1324
F623.6025726289862
s((I1
S'14'
p1325
tp1326
(g196
S'10'
p1327
tp1328
g7
g7
tp1329
F522.6599996769276
s((I0
g91
tp1330
(g862
g257
tp1331
g97
g96
tp1332
F12951.682382046776
s((I0
g91
tp1333
(g580
g91
tp1334
g97
g97
tp1335
F-34180.26564330009
s((I1
S'13'
p1336
tp1337
(g196
g4
tp1338
g7
g6
tp1339
F1113.1394295048594
s(S'open 3'
p1340
I2
I00
I01
tp1341
F-45548.755303248145
s((I0
g9
tp1342
(g328
S'14'
p1343
tp1344
g6
g7
tp1345
F-253.542610047462
s((I0
g38
tp1346
(g40
S'11'
p1347
tp1348
g32
g31
tp1349
F330.6184463190238
s(g193
I8
I00
I00
tp1350
F-1271.623846177232
s((I0
g1
tp1351
(g74
g243
tp1352
g7
g7
tp1353
F606.7472088501686
s((I1
g9
tp1354
(g11
S'14'
p1355
tp1356
g6
g7
tp1357
F-278.89137925485187
s((I0
g131
tp1358
(g555
g556
tp1359
g136
g136
tp1360
F4791.253127914433
s(g193
I10
I01
I01
tp1361
F-1077.8742800252064
s((I0
g166
tp1362
(g40
g265
tp1363
g32
g31
tp1364
F-373.5022617281202
s((I0
g131
tp1365
(S'blocked 3'
p1366
g134
tp1367
g136
g151
tp1368
F1619.4122452248669
s((I1
g1
tp1369
(g57
g15
tp1370
g7
g6
tp1371
F1634.4883697233045
s((I0
g268
tp1372
(g50
g492
tp1373
g54
g53
tp1374
F5446.862710102848
s((I0
g15
tp1375
(S'blocked 2'
p1376
g1
tp1377
g6
g7
tp1378
F18670.787708864136
s((I1
g9
tp1379
(S'open 2'
p1380
g23
tp1381
g6
g6
tp1382
F-74.34225904950245
s((I1
g257
tp1383
(g93
g257
tp1384
g97
g97
tp1385
F28312.699019179192
s((I1
g1
tp1386
(g57
g20
tp1387
g7
g6
tp1388
F-6075.818459049682
s((I0
g23
tp1389
(g193
g15
tp1390
g6
g7
tp1391
F689.3135655820001
s((I0
g9
tp1392
(g328
S'11'
p1393
tp1394
g7
g6
tp1395
F269.95576197340233
s((I1
g153
tp1396
(g155
S'13'
p1397
tp1398
g32
g32
tp1399
F-213.8378980802489
s((I1
g9
tp1400
(g11
S'14'
p1401
tp1402
g7
g7
tp1403
F-214.37900375524273
s((I1
g91
tp1404
(S'open 3'
p1405
g257
tp1406
g97
g97
tp1407
F-8598.796838634538
s((I1
g1058
tp1408
(g1060
g1156
tp1409
g1062
g1062
tp1410
F35.21212617385038
s((I0
g166
tp1411
(g100
S'11'
p1412
tp1413
g32
g31
tp1414
F238.97799650239395
s((I1
g15
tp1415
(g105
g20
tp1416
g7
g6
tp1417
F13463.322161455328
s((I1
g20
tp1418
(g65
g9
tp1419
g7
g7
tp1420
F-4162.762106433149
s((I1
g153
tp1421
(g155
S'13'
p1422
tp1423
g31
g32
tp1424
F145.3811746675601
s((I0
g85
tp1425
(g87
g178
tp1426
g31
g31
tp1427
F155.6383265925695
s((I1
g153
tp1428
(g155
g265
tp1429
g32
g32
tp1430
F-237.01678014239093
s((I1
g20
tp1431
(g45
g243
tp1432
g7
g6
tp1433
F565.9934981327269
s((I1
g85
tp1434
(g427
g153
tp1435
g32
g32
tp1436
F-10983.16004222713
s((I0
g134
tp1437
(g594
g174
tp1438
g151
g151
tp1439
F-999.5469707798837
s((I1
g9
tp1440
(g11
S'12'
p1441
tp1442
g7
g7
tp1443
F-1979.718984449089
s((I0
g29
tp1444
(g100
g85
tp1445
g31
g31
tp1446
F-465.7194783908961
s((I1
g166
tp1447
(S'blocked 2'
p1448
g68
tp1449
g31
g32
tp1450
F440.30969430985436
s((I0
g15
tp1451
(g193
g214
tp1452
g6
g7
tp1453
F503.9972514683884
s((I0
g166
tp1454
(g100
g178
tp1455
g32
g31
tp1456
F1101.8221464839426
s((I1
g257
tp1457
(g368
g91
tp1458
g96
g96
tp1459
F-24856.751874171696
s((I0
g70
tp1460
(S'open 2'
p1461
g178
tp1462
g32
g32
tp1463
F708.8051556311301
s((I0
g20
tp1464
(g61
g15
tp1465
g7
g7
tp1466
F10968.949110725081
s((I1
g91
tp1467
(g929
g91
tp1468
g96
g96
tp1469
F-7697.352618479889
s((I1
S'16'
p1470
tp1471
(g196
g243
tp1472
g7
g7
tp1473
F-698.4981880174047
s((I1
g257
tp1474
(g1114
g94
tp1475
g96
g97
tp1476
F-15580.301079291059
s((I0
g243
tp1477
(g193
g15
tp1478
g6
g6
tp1479
F186.09037095078426
s((I1
g20
tp1480
(g45
g214
tp1481
g6
g7
tp1482
F-7942.099782501746
s((I0
g9
tp1483
(S'blocked 3'
p1484
g4
tp1485
g6
g6
tp1486
F3327.8813641878132
s((I1
g70
tp1487
(S'open 2'
p1488
S'10'
p1489
tp1490
g32
g32
tp1491
F-720.1465296121914
s((I1
g9
tp1492
(g247
S'11'
p1493
tp1494
g7
g6
tp1495
F466.81156247581123
s((I0
g91
tp1496
(g580
g91
tp1497
g96
g97
tp1498
F7086.788248588782
s((I1
S'10'
p1499
tp1500
(g196
g9
tp1501
g6
g6
tp1502
F3747.459021883359
s((I1
S'16'
p1503
tp1504
(g196
g20
tp1505
g7
g6
tp1506
F190.8627212780668
s((I0
g9
tp1507
(g228
S'14'
p1508
tp1509
g7
g7
tp1510
F-1321.2613568194465
s((I1
S'3'
p1511
tp1512
(S'open 3'
p1513
g1511
tp1514
g1032
g1032
tp1515
F-130.28297714694781
s((I1
S'2'
p1516
tp1517
(S'open 3'
p1518
g559
tp1519
g564
g564
tp1520
F-3301.2498522706487
s((I1
g9
tp1521
(S'blocked 3'
p1522
g1
tp1523
g7
g6
tp1524
F10123.703702379355
s((I1
g9
tp1525
(S'blocked 3'
p1526
g20
tp1527
g7
g6
tp1528
F16793.66751816508
s((I0
g153
tp1529
(S'open 4'
p1530
g68
tp1531
g31
g32
tp1532
F-143.30241754130066
s((I1
g9
tp1533
(g22
g23
tp1534
g7
g7
tp1535
F628.2477186181161
s(g196
I15
I01
I01
tp1536
F723.5704027829696
s((I1
g1
tp1537
(g57
g243
tp1538
g6
g7
tp1539
F-391.842932224238
s((I1
g48
tp1540
(g270
g51
tp1541
g54
g53
tp1542
F-5448.820312791313
s((I1
g15
tp1543
(g756
g20
tp1544
g6
g6
tp1545
F-353.8651652632233
s((I1
g904
tp1546
(g906
S'1'
p1547
tp1548
g302
g607
tp1549
F-1399.479975935586
s((I0
g9
tp1550
(g189
S'14'
p1551
tp1552
g6
g7
tp1553
F271.94238220235985
s((I0
g131
tp1554
(S'open 3'
p1555
g149
tp1556
g151
g151
tp1557
F-8882.062566672172
s((I1
S'13'
p1558
tp1559
(g196
S'11'
p1560
tp1561
g6
g6
tp1562
F-175.35305588552666
s((I1
g9
tp1563
(g505
S'13'
p1564
tp1565
g6
g6
tp1566
F38.99522923392885
s((I0
g9
tp1567
(g82
g23
tp1568
g7
g7
tp1569
F-579.785989528554
s((I0
g85
tp1570
(g87
S'11'
p1571
tp1572
g31
g32
tp1573
F-252.6911605903448
s((I0
g873
tp1574
(S'open 2'
p1575
g48
tp1576
g53
g53
tp1577
F-41090.961880749805
s((I1
g20
tp1578
(g290
S'10'
p1579
tp1580
g6
g6
tp1581
F-733.529945001666
s((I1
S'11'
p1582
tp1583
(g28
g85
tp1584
g31
g32
tp1585
F407.85554589746897
s((I1
g9
tp1586
(g22
g23
tp1587
g6
g6
tp1588
F-2337.6414310660007
s((I1
g131
tp1589
(g823
S'9'
p1590
tp1591
g151
g151
tp1592
F-78.72863751925762
s((I0
g149
tp1593
(g282
g146
tp1594
g151
g136
tp1595
F-296.1974665968254
s((I1
g91
tp1596
(S'open 4'
p1597
g91
tp1598
g97
g97
tp1599
F-4487.506492373602
s((I1
g320
tp1600
(g196
g214
tp1601
g6
g6
tp1602
F-104.76341795906757
s((I1
g214
tp1603
(g57
g9
tp1604
g7
g7
tp1605
F-1747.153993853438
s((I1
g20
tp1606
(g384
g15
tp1607
g7
g6
tp1608
F4843.6060126726525
s((I1
g15
tp1609
(g286
g15
tp1610
g6
g7
tp1611
F-10026.127956258239
s((I1
g9
tp1612
(g401
S'14'
p1613
tp1614
g6
g6
tp1615
F311.4469476720314
s((I1
g15
tp1616
(g756
g1
tp1617
g6
g6
tp1618
F-2767.521524843574
s((I0
S'4'
p1619
tp1620
(S'open 2'
p1621
g559
tp1622
g564
g564
tp1623
F-695.9052927885274
s((I1
g91
tp1624
(g93
g94
tp1625
g97
g96
tp1626
F5966.611787845624
s((I1
S'10'
p1627
tp1628
(g28
g265
tp1629
g32
g32
tp1630
F-89.9852902055614
s((I0
g243
tp1631
(g193
g1
tp1632
g6
g7
tp1633
F-981.8088695319043
s((I0
g85
tp1634
(g40
g29
tp1635
g31
g31
tp1636
F-741.0716704877796
s((I1
g20
tp1637
(g290
g214
tp1638
g6
g7
tp1639
F-28770.94448502112
s((I0
g9
tp1640
(g328
S'13'
p1641
tp1642
g7
g7
tp1643
F-161.8624746202653
s((I0
g9
tp1644
(g328
S'14'
p1645
tp1646
g7
g6
tp1647
F225.8990453052852
s((I0
g91
tp1648
(S'open 2'
p1649
g94
tp1650
g96
g96
tp1651
F-2324.5701120930744
s((I1
S'15'
p1652
tp1653
(g196
g243
tp1654
g6
g7
tp1655
F204.63212684175977
s((I0
S'11'
p1656
tp1657
(g74
S'14'
p1658
tp1659
g6
g6
tp1660
F-219.2082429550064
s((I0
g29
tp1661
(g100
S'10'
p1662
tp1663
g32
g31
tp1664
F1101.6404522762982
s((I1
g85
tp1665
(g1144
g166
tp1666
g31
g32
tp1667
F2562.4231002255724
s((I0
g9
tp1668
(g328
S'10'
p1669
tp1670
g6
g7
tp1671
F62.00078665401739
s((I1
g214
tp1672
(g57
g214
tp1673
g6
g6
tp1674
F-6807.181886014836
s((I0
g265
tp1675
(g100
S'13'
p1676
tp1677
g31
g32
tp1678
F-291.18428193533083
s((I0
g131
tp1679
(g1555
g149
tp1680
g136
g136
tp1681
F499.7356333492047
s((I0
S'10'
p1682
tp1683
(g594
g134
tp1684
g136
g151
tp1685
F-952.1440716161222
s((I0
S'10'
p1686
tp1687
(g193
g214
tp1688
g6
g7
tp1689
F653.8022391935979
s((I0
g214
tp1690
(g1376
g15
tp1691
g6
g7
tp1692
F27205.04376137117
s((I1
g1
tp1693
(g57
g4
tp1694
g6
g6
tp1695
F-1325.1795399808827
s((I1
g1
tp1696
(g756
g1
tp1697
g7
g6
tp1698
F-37.72810134462753
s((I0
g153
tp1699
(S'blocked 4'
p1700
g166
tp1701
g32
g31
tp1702
F3393.1081690652586
s((I0
g131
tp1703
(S'blocked 4'
p1704
g174
tp1705
g151
g136
tp1706
F-1015.1887270147894
s((I1
g178
tp1707
(g28
g166
tp1708
g31
g31
tp1709
F892.7687231630073
s((I1
g9
tp1710
(S'open 4'
p1711
g1
tp1712
g6
g6
tp1713
F1820.2146283456163
s((I1
g307
tp1714
(S'blocked 3'
p1715
g696
tp1716
g312
g312
tp1717
F-300.2212535101219
s((I1
S'10'
p1718
tp1719
(g28
g29
tp1720
g32
g31
tp1721
F-421.78624120811503
s((I0
g94
tp1722
(g1043
g257
tp1723
g97
g96
tp1724
F2485.664600495932
s((I1
g174
tp1725
(g148
g280
tp1726
g136
g136
tp1727
F5043.956699599701
s((I0
g9
tp1728
(S'blocked 4'
p1729
g15
tp1730
g7
g6
tp1731
F23107.175725571626
s((I1
g214
tp1732
(g460
g1
tp1733
g6
g7
tp1734
F-2334.768139741857
s(g143
I1
I01
I00
tp1735
F87633.64238842546
s((I1
S'14'
p1736
tp1737
(g196
g320
tp1738
g6
g6
tp1739
F43.15567442751199
s((I1
g85
tp1740
(g376
S'11'
p1741
tp1742
g31
g31
tp1743
F818.7818541068473
s((I1
g268
tp1744
(S'open 2'
p1745
g51
tp1746
g54
g54
tp1747
F6469.889462726843
s((I1
g178
tp1748
(g28
g166
tp1749
g32
g31
tp1750
F756.2828754247432
s((I1
g149
tp1751
(g567
g146
tp1752
g136
g151
tp1753
F17.4324029428477
s((I0
g265
tp1754
(g100
g38
tp1755
g31
g32
tp1756
F-462.6928677694052
s((I0
g85
tp1757
(g40
S'11'
p1758
tp1759
g31
g31
tp1760
F-747.9442424989104
s((I0
g131
tp1761
(g594
g174
tp1762
g136
g151
tp1763
F276.85087341948883
s((I1
g9
tp1764
(g337
g243
tp1765
g7
g6
tp1766
F-2808.3325808660725
s((I0
g9
tp1767
(g228
g320
tp1768
g6
g6
tp1769
F-2881.3325316708574
s((I0
g85
tp1770
(g40
g29
tp1771
g32
g31
tp1772
F3714.501618120917
s((I0
g166
tp1773
(g40
g70
tp1774
g32
g32
tp1775
F224.14020279915212
s((I1
g15
tp1776
(g1246
g15
tp1777
g7
g6
tp1778
F8512.625314560219
s((I0
g1547
tp1779
(S'blocked 4'
p1780
S'5'
p1781
tp1782
g607
g607
tp1783
F-97.21986375733506
s((I0
g131
tp1784
(S'open 3'
p1785
g146
tp1786
g136
g151
tp1787
F-20.826296161968884
s((I0
g9
tp1788
(g547
g23
tp1789
g7
g6
tp1790
F551.1226912042076
s((I0
g51
tp1791
(g139
g268
tp1792
g53
g54
tp1793
F-16166.646135716495
s((I1
g166
tp1794
(S'open 2'
p1795
g153
tp1796
g31
g31
tp1797
F-939.7316076990749
s((I1
g178
tp1798
(S'blocked 2'
p1799
g85
tp1800
g32
g32
tp1801
F-3324.4728754861203
s((I0
g9
tp1802
(g1484
g4
tp1803
g7
g7
tp1804
F-8372.400633244974
s((I0
g265
tp1805
(g100
S'10'
p1806
tp1807
g31
g32
tp1808
F-85.47208791779833
s((I0
g1
tp1809
(g35
g15
tp1810
g7
g6
tp1811
F1416.2471389524076
s((I0
g38
tp1812
(g626
g178
tp1813
g32
g32
tp1814
F-645.4707879148209
s((I1
g15
tp1815
(g361
g15
tp1816
g6
g6
tp1817
F1910.4957253185557
s((I0
g38
tp1818
(g40
S'11'
p1819
tp1820
g31
g31
tp1821
F-107.82968669910144
s((I0
g320
tp1822
(g193
g20
tp1823
g6
g6
tp1824
F625.3677068535144
s((I1
g38
tp1825
(g376
S'13'
p1826
tp1827
g32
g31
tp1828
F-281.5648815435423
s((I1
g9
tp1829
(g505
S'13'
p1830
tp1831
g7
g7
tp1832
F-1167.859773507496
s((I0
g243
tp1833
(g74
g9
tp1834
g6
g6
tp1835
F-814.1775371363974
s((I1
g9
tp1836
(g17
g214
tp1837
g7
g6
tp1838
F13414.955827398808
s((I0
g9
tp1839
(g328
S'10'
p1840
tp1841
g7
g7
tp1842
F-1034.7080491650818
s((I0
g257
tp1843
(g295
g91
tp1844
g96
g97
tp1845
F-832.1583721088596
s((I0
g1547
tp1846
(g1780
g1547
tp1847
g607
g607
tp1848
F1922.1799610277567
s((I1
g693
tp1849
(g695
g696
tp1850
g312
g312
tp1851
F1867.0060316359022
s(g1513
I3
I01
I01
tp1852
F31070.52012162548
s((I1
g412
tp1853
(S'blocked 3'
p1854
g174
tp1855
g151
g151
tp1856
F-397.19940143695203
s((I0
g94
tp1857
(g1043
g257
tp1858
g96
g97
tp1859
F-7462.757998877708
s((I1
g85
tp1860
(g427
g70
tp1861
g31
g32
tp1862
F-4815.805942636307
s(g929
I1
I00
I00
tp1863
F-44976.52970627198
s((I0
g131
tp1864
(g1366
g146
tp1865
g136
g151
tp1866
F770.5440705947303
s((I1
S'10'
p1867
tp1868
(g28
g85
tp1869
g31
g31
tp1870
F-1060.018688238585
s((I0
g1
tp1871
(g213
g23
tp1872
g7
g6
tp1873
F-1241.44988613449
s((I1
S'13'
p1874
tp1875
(g28
g38
tp1876
g32
g31
tp1877
F-364.1786895089621
s((I1
S'14'
p1878
tp1879
(g196
g9
tp1880
g7
g6
tp1881
F1915.1870841397013
s(g213
I4
I00
I00
tp1882
F-42279.40710068495
s((I0
S'10'
p1883
tp1884
(g74
S'14'
p1885
tp1886
g6
g7
tp1887
F254.74323580052993
s((I0
g605
tp1888
(S'open 3'
p1889
g452
tp1890
g607
g302
tp1891
F-3927.964648121448
s((I0
g166
tp1892
(g165
g166
tp1893
g31
g31
tp1894
F-654.5761696740011
s((I0
g865
tp1895
(g867
g868
tp1896
g871
g871
tp1897
F569.3367782987888
s((I1
S'11'
p1898
tp1899
(g196
g9
tp1900
g6
g6
tp1901
F-2333.7575672994226
s((I1
g38
tp1902
(g376
S'12'
p1903
tp1904
g31
g31
tp1905
F-643.4888592798789
s((I0
g4
tp1906
(g193
g1
tp1907
g7
g6
tp1908
F-342.3178124113576
s((I0
S'10'
p1909
tp1910
(g193
g9
tp1911
g7
g7
tp1912
F-633.1435636620483
s((I0
g153
tp1913
(S'open 3'
p1914
g38
tp1915
g32
g32
tp1916
F-5270.015503235018
s((I1
g23
tp1917
(g196
g20
tp1918
g6
g7
tp1919
F-1439.8175562289707
s((I0
g15
tp1920
(g213
g15
tp1921
g6
g6
tp1922
F20881.38918956839
s((I1
g20
tp1923
(g286
g214
tp1924
g7
g6
tp1925
F-892.8924169577817
s((I1
S'12'
p1926
tp1927
(g196
g20
tp1928
g6
g6
tp1929
F-63.04170305333257
s((I1
g307
tp1930
(g309
g310
tp1931
g313
g313
tp1932
F-8502.626023367673
s((I1
g166
tp1933
(g760
g70
tp1934
g31
g31
tp1935
F7074.180859051083
s((I0
g23
tp1936
(g193
g1
tp1937
g7
g6
tp1938
F-176.82531706612235
s((I1
g268
tp1939
(g510
g51
tp1940
g53
g54
tp1941
F14539.273136041267
s((I0
g85
tp1942
(g87
g153
tp1943
g31
g32
tp1944
F-1655.8420459778508
s(g1034
I1
I01
I00
tp1945
F5456.305225545937
s((I1
g91
tp1946
(g1114
g422
tp1947
g96
g96
tp1948
F23487.97606796217
s((I1
g91
tp1949
(S'open 4'
p1950
g94
tp1951
g97
g96
tp1952
F8535.784247869433
s((I1
g20
tp1953
(g45
S'10'
p1954
tp1955
g6
g7
tp1956
F-31.60964881826999
s((I0
g15
tp1957
(g1376
g15
tp1958
g6
g6
tp1959
F5068.084597429222
s((I0
g85
tp1960
(g87
g70
tp1961
g31
g32
tp1962
F-4793.264032624953
s((I1
g166
tp1963
(S'open 2'
p1964
g70
tp1965
g32
g31
tp1966
F-256.09304925533456
s((I0
g153
tp1967
(g1914
g38
tp1968
g31
g31
tp1969
F8639.79862609406
s((I0
g70
tp1970
(S'open 2'
p1971
g68
tp1972
g31
g32
tp1973
F-3203.7649725250003
s((I1
g9
tp1974
(g505
S'10'
p1975
tp1976
g7
g6
tp1977
F809.7513054116364
s((I1
g214
tp1978
(g460
g15
tp1979
g6
g6
tp1980
F-449.33765549537964
s((I0
g85
tp1981
(g87
g85
tp1982
g31
g32
tp1983
F174.31485095455457
s((I0
g1
tp1984
(g61
g9
tp1985
g6
g7
tp1986
F14741.858373145273
s((I0
g280
tp1987
(g282
g174
tp1988
g136
g136
tp1989
F-594.786220359211
s((I1
g15
tp1990
(g286
g1
tp1991
g6
g6
tp1992
F-19671.6351226874
s((I0
g4
tp1993
(g213
g9
tp1994
g6
g6
tp1995
F-313.7837780643973
s((I0
g134
tp1996
(g282
g146
tp1997
g151
g136
tp1998
F41.400186659317114
s((I1
g15
tp1999
(g1246
g1
tp2000
g7
g7
tp2001
F11605.17956927622
s((I0
g91
tp2002
(S'open 3'
p2003
g257
tp2004
g97
g96
tp2005
F-4874.197695281227
s(g929
I1
I00
I01
tp2006
F-18090.093291998415
s((I0
g9
tp2007
(S'blocked 4'
p2008
S'11'
p2009
tp2010
g7
g6
tp2011
F507.9893860249347
s((I1
g9
tp2012
(g22
g320
tp2013
g6
g7
tp2014
F-3772.3461368521844
s(g213
I6
I01
I00
tp2015
F720.9877906863329
s((I0
g214
tp2016
(g74
g320
tp2017
g6
g6
tp2018
F-446.6634264965167
s((I1
g174
tp2019
(g148
g131
tp2020
g151
g151
tp2021
F-15167.732995087948
s((I1
g20
tp2022
(g17
g4
tp2023
g6
g7
tp2024
F-1644.0786237627808
s((I0
g85
tp2025
(S'blocked 2'
p2026
g178
tp2027
g32
g31
tp2028
F1280.9693986568498
s((I1
g20
tp2029
(g22
g320
tp2030
g7
g7
tp2031
F-846.6182317915279
s((I1
g15
tp2032
(g1246
g15
tp2033
g6
g7
tp2034
F5525.425460771279
s((I0
g4
tp2035
(g74
S'13'
p2036
tp2037
g6
g7
tp2038
F-408.7968816838195
s((I0
g23
tp2039
(g74
S'14'
p2040
tp2041
g6
g7
tp2042
F-445.3270297519981
s(g580
I1
I00
I00
tp2043
F-8692.479558676085
s((I0
g1
tp2044
(g74
S'10'
p2045
tp2046
g6
g7
tp2047
F-168.71193943680024
s((I0
g298
tp2048
(g300
g1547
tp2049
g607
g302
tp2050
F14112.486338215844
s((I0
g873
tp2051
(g494
g268
tp2052
g53
g53
tp2053
F1088.4556628474156
s((I0
g70
tp2054
(g40
g29
tp2055
g32
g32
tp2056
F265.1323910163321
s((I0
g29
tp2057
(g100
g166
tp2058
g31
g31
tp2059
F-34.087441937353994
s(g756
I4
I00
I00
tp2060
F-6569.217063122597
s((I1
g114
tp2061
(g116
g117
tp2062
S'False'
p2063
g119
tp2064
F1943.215538669026
s((I1
g214
tp2065
(g57
g1
tp2066
g7
g7
tp2067
F-1747.2984713275346
s((I1
S'12'
p2068
tp2069
(g196
g9
tp2070
g7
g7
tp2071
F-1663.0813419538083
s((I0
g15
tp2072
(g213
g1
tp2073
g6
g6
tp2074
F9600.766695948516
s((I0
g131
tp2075
(g594
g174
tp2076
g151
g136
tp2077
F-731.8498644397152
s((I1
g91
tp2078
(g1193
g91
tp2079
g97
g96
tp2080
F30405.822254421182
s(g1575
I3
I00
I00
tp2081
F-75394.82395420471
s((I0
g298
tp2082
(g300
g605
tp2083
g302
g607
tp2084
F-4711.507863549338
s(g295
I2
I00
I01
tp2085
F4242.043764351112
s((I0
g280
tp2086
(g282
g146
tp2087
g151
g136
tp2088
F5028.6951706245745
s((I1
g214
tp2089
(g756
g20
tp2090
g7
g7
tp2091
F475.46508895049965
s((I0
g4
tp2092
(g886
g20
tp2093
g7
g7
tp2094
F-4782.357935266627
s(g368
I4
I01
I00
tp2095
F2254.3282187157647
s(g756
I3
I00
I01
tp2096
F-14944.427982878526
s((I1
g1
tp2097
(g361
g15
tp2098
g7
g6
tp2099
F4943.280680742502
s((I0
g1511
tp2100
(S'open 2'
p2101
S'6'
p2102
tp2103
S'True'
p2104
g2104
tp2105
F-13774.733511450104
s((I0
g9
tp2106
(g328
S'13'
p2107
tp2108
g6
g6
tp2109
F6.293599795225987
s((I1
S'14'
p2110
tp2111
(g196
S'11'
p2112
tp2113
g7
g7
tp2114
F-149.69062281661513
s(g862
I1
I01
I00
tp2115
F-20241.089221544502
s((I1
g9
tp2116
(S'open 3'
p2117
S'15'
p2118
tp2119
g7
g6
tp2120
F-37.411494077825914
s((I1
g131
tp2121
(g133
g146
tp2122
g151
g151
tp2123
F394.35105856695805
s((I0
g9
tp2124
(g189
S'14'
p2125
tp2126
g7
g6
tp2127
F-368.05972928678335
s((I1
g15
tp2128
(g286
g243
tp2129
g7
g7
tp2130
F1888.7446051451186
s((I1
g166
tp2131
(g376
g265
tp2132
g32
g32
tp2133
F-526.2120953660205
s((I1
g131
tp2134
(S'open 4'
p2135
g134
tp2136
g151
g151
tp2137
F16168.47243852158
s((I0
g265
tp2138
(g100
S'12'
p2139
tp2140
g31
g31
tp2141
F292.6065970300429
s((I0
g153
tp2142
(S'open 4'
p2143
g38
tp2144
g32
g31
tp2145
F-23106.615595184077
s((I1
g20
tp2146
(g65
g20
tp2147
g6
g6
tp2148
F-8471.162449202919
s((I1
g214
tp2149
(g57
S'10'
p2150
tp2151
g7
g6
tp2152
F1659.7446505490825
s((I0
g1619
tp2153
(g1621
g559
tp2154
S'False'
p2155
g2155
tp2156
F1057.2551186928424
s((I1
g15
tp2157
(g756
g9
tp2158
g6
g6
tp2159
F-25716.247264779213
s((I0
g29
tp2160
(g100
S'11'
p2161
tp2162
g31
g31
tp2163
F-129.1081247733196
s((I1
g20
tp2164
(S'open 2'
p2165
S'13'
p2166
tp2167
g7
g6
tp2168
F-8.369958278014753
s((I0
g153
tp2169
(S'open 4'
p2170
g38
tp2171
g31
g31
tp2172
F1363.696817982528
s((I1
g214
tp2173
(g460
g20
tp2174
g6
g7
tp2175
F-1254.8006872773237
s((I0
g68
tp2176
(g40
g166
tp2177
g32
g31
tp2178
F651.9180749641014
s((I1
g307
tp2179
(g309
g473
tp2180
g312
g312
tp2181
F3285.319768037549
s(g121
I3
I01
I00
tp2182
F-10429.423893089936
s((I1
S'14'
p2183
tp2184
(g196
g320
tp2185
g7
g6
tp2186
F512.0750567557079
s((I1
g166
tp2187
(g376
S'13'
p2188
tp2189
g31
g31
tp2190
F948.0816744621766
s((I1
g48
tp2191
(g510
g51
tp2192
g54
g54
tp2193
F7778.320610101151
s(g139
I5
I00
I01
tp2194
F-895.6355563145097
s((I0
g4
tp2195
(g193
g214
tp2196
g7
g6
tp2197
F-1435.3696940134157
s(g295
I2
I01
I01
tp2198
F32309.41428553054
s((I1
g9
tp2199
(g2117
g243
tp2200
g6
g7
tp2201
F1355.5018827381896
s(g65
I2
I01
I00
tp2202
F8519.399388119771
s((I1
g20
tp2203
(g505
S'15'
p2204
tp2205
g7
g7
tp2206
F1164.043235599873
s((I0
g91
tp2207
(S'open 2'
p2208
g422
tp2209
g96
g96
tp2210
F1455.7954642757322
s((I0
g412
tp2211
(S'open 2'
p2212
g556
tp2213
g151
g151
tp2214
F2192.1017530918307
s((I0
g243
tp2215
(g74
S'14'
p2216
tp2217
g6
g7
tp2218
F-287.83247182990544
s((I0
g1
tp2219
(g213
g214
tp2220
g6
g7
tp2221
F-2660.3238479803067
s((I1
g174
tp2222
(g148
g280
tp2223
g151
g136
tp2224
F-1807.129832962776
s((I1
g9
tp2225
(S'blocked 4'
p2226
g320
tp2227
g7
g6
tp2228
F-739.8315836335889
s((I1
S'13'
p2229
tp2230
(g196
g20
tp2231
g7
g6
tp2232
F174.409429480571
s((I1
S'14'
p2233
tp2234
(g196
g23
tp2235
g6
g6
tp2236
F94.46127751788211
s((I1
g15
tp2237
(g3
g4
tp2238
g7
g7
tp2239
F5385.715361440811
s((I1
g48
tp2240
(S'open 4'
p2241
g492
tp2242
g53
g53
tp2243
F-19041.238098233796
s(g886
I6
I00
I00
tp2244
F2931.3563841061487
s((I0
g166
tp2245
(g100
S'11'
p2246
tp2247
g32
g32
tp2248
F1083.960343975717
s((I1
g20
tp2249
(g184
g243
tp2250
g7
g6
tp2251
F-554.8530238866547
s((I1
g9
tp2252
(g286
S'10'
p2253
tp2254
g6
g6
tp2255
F-1498.7242072207364
s((I0
g91
tp2256
(g1173
g94
tp2257
g97
g96
tp2258
F-2117.082817889906
s((I0
S'10'
p2259
tp2260
(g193
g214
tp2261
g7
g7
tp2262
F-2086.077929442358
s((I0
g9
tp2263
(S'open 3'
p2264
S'15'
p2265
tp2266
g7
g6
tp2267
F-3197.3348071463206
s(g193
I8
I01
I01
tp2268
F2514.2673820026885
s((I0
g320
tp2269
(g74
g9
tp2270
g7
g6
tp2271
F-912.6538527493865
s((I0
g15
tp2272
(g213
g214
tp2273
g7
g7
tp2274
F-7160.990269860909
s((I1
g1
tp2275
(g756
g20
tp2276
g6
g7
tp2277
F2648.9259685559937
s((I0
g4
tp2278
(g193
g1
tp2279
g6
g7
tp2280
F-4416.579553464482
s((I1
g94
tp2281
(g368
g91
tp2282
g97
g96
tp2283
F3547.492379943263
s((I1
g174
tp2284
(g148
g412
tp2285
g136
g151
tp2286
F-544.5004720215607
s((I1
g9
tp2287
(g536
S'10'
p2288
tp2289
g7
g7
tp2290
F209.35695807179104
s((I1
g559
tp2291
(g561
g1516
tp2292
g564
g564
tp2293
F7743.665107525467
s(g108
I2
I01
I01
tp2294
F53443.79627435035
s((I1
S'15'
p2295
tp2296
(g196
g320
tp2297
g6
g6
tp2298
F-653.3053989764043
s((I1
g268
tp2299
(g270
g492
tp2300
g53
g53
tp2301
F-7309.140909441952
s((I0
g166
tp2302
(g40
S'12'
p2303
tp2304
g31
g31
tp2305
F214.88240799761084
s((I1
g9
tp2306
(g11
g243
tp2307
g6
g6
tp2308
F-5976.316031669696
s((I1
g146
tp2309
(g148
g280
tp2310
g136
g151
tp2311
F1094.7994258485983
s((I1
g9
tp2312
(g205
g15
tp2313
g6
g7
tp2314
F-4502.908677198394
s((I1
g1
tp2315
(g756
g9
tp2316
g7
g6
tp2317
F606.323356892984
s((I1
g20
tp2318
(g45
g15
tp2319
g7
g6
tp2320
F2511.081258740471
s((I0
g134
tp2321
(g282
g146
tp2322
g136
g151
tp2323
F-82.37454205018294
s((I1
g9
tp2324
(g286
g214
tp2325
g7
g7
tp2326
F-15948.435211401258
s((I1
S'13'
p2327
tp2328
(g196
g4
tp2329
g6
g6
tp2330
F-484.90962649315264
s((I0
g214
tp2331
(g213
g15
tp2332
g7
g6
tp2333
F-4784.648380722304
s((I1
g9
tp2334
(g1526
g9
tp2335
g6
g7
tp2336
F-25810.986727487165
s((I1
g1
tp2337
(g351
g9
tp2338
g7
g6
tp2339
F12349.44418388833
s((I1
g257
tp2340
(g1114
g94
tp2341
g97
g97
tp2342
F24544.558451969115
s((I1
g23
tp2343
(g196
g1
tp2344
g6
g6
tp2345
F121.50501918790654
s((I0
g243
tp2346
(g74
S'16'
p2347
tp2348
g7
g7
tp2349
F296.51802783048595
s((I0
g320
tp2350
(g193
g9
tp2351
g6
g6
tp2352
F-808.2444268955265
s((I0
g166
tp2353
(g165
g68
tp2354
g31
g31
tp2355
F257.98270064989276
s((I1
g91
tp2356
(S'open 2'
p2357
g257
tp2358
g96
g97
tp2359
F-22963.95465584551
s((I0
S'11'
p2360
tp2361
(g74
g9
tp2362
g7
g6
tp2363
F13.910452651998309
s((I0
g1511
tp2364
(g2101
g2102
tp2365
g1032
g1032
tp2366
F5442.7545959444915
s(g1513
I3
I00
I00
tp2367
F-29334.203798434435
s((I0
g1
tp2368
(g61
g9
tp2369
g7
g6
tp2370
F-9235.115160456884
s((I1
g268
tp2371
(g510
g51
tp2372
g54
g54
tp2373
F10127.2392724254
s((I0
g70
tp2374
(g87
S'11'
p2375
tp2376
g32
g32
tp2377
F-726.0830542171906
s((I1
g146
tp2378
(g148
g149
tp2379
g136
g151
tp2380
F106.66033871487312
s((I1
g91
tp2381
(g1193
g257
tp2382
g96
g97
tp2383
F6997.925124747462
s((I0
g4
tp2384
(g193
g9
tp2385
g7
g6
tp2386
F9516.132360475054
s((I0
g91
tp2387
(g2003
g257
tp2388
g96
g97
tp2389
F3981.861000328963
s((I0
g280
tp2390
(g282
g134
tp2391
g136
g151
tp2392
F-772.5803715736778
s((I1
S'16'
p2393
tp2394
(g196
g9
tp2395
g7
g7
tp2396
F-387.9691150770949
s((I1
g20
tp2397
(g65
g9
tp2398
g6
g6
tp2399
F-10687.451844278778
s((I1
g174
tp2400
(g447
g134
tp2401
g136
g136
tp2402
F1175.364550229732
s((I1
g1
tp2403
(g351
g20
tp2404
g6
g7
tp2405
F-9831.537938501111
s((I1
g153
tp2406
(S'blocked 4'
p2407
g166
tp2408
g32
g32
tp2409
F1432.693976925472
s((I1
g9
tp2410
(g1380
g23
tp2411
g6
g7
tp2412
F-801.2318205835552
s((I1
g91
tp2413
(g1193
g257
tp2414
g97
g97
tp2415
F17233.636311883092
s((I0
g166
tp2416
(g100
S'10'
p2417
tp2418
g31
g32
tp2419
F126.16025728466593
s((I0
g166
tp2420
(g165
g68
tp2421
g32
g32
tp2422
F-212.67688199265675
s((I1
g9
tp2423
(g1526
g9
tp2424
g7
g6
tp2425
F22837.514366605086
s(g196
I13
I01
I01
tp2426
F154.74791258270392
s((I1
g257
tp2427
(S'blocked 2'
p2428
g91
tp2429
g97
g96
tp2430
F21405.821573487134
s((I1
g320
tp2431
(g196
g9
tp2432
g7
g6
tp2433
F1390.5082225335277
s(g196
I15
I00
I00
tp2434
F-1131.9274409520776
s((I0
g20
tp2435
(g193
g1
tp2436
g6
g6
tp2437
F2773.510896318299
s((I1
g131
tp2438
(S'open 4'
p2439
g146
tp2440
g151
g136
tp2441
F-560.2344037002142
s((I1
g15
tp2442
(g286
g1
tp2443
g7
g7
tp2444
F13999.529425064664
s((I1
g9
tp2445
(S'open 2'
p2446
g243
tp2447
g6
g7
tp2448
F1249.8588366842246
s((I1
g85
tp2449
(g427
g153
tp2450
g32
g31
tp2451
F-5030.951313992499
s((I0
S'10'
p2452
tp2453
(g74
S'13'
p2454
tp2455
g6
g6
tp2456
F-25.414719204238775
s((I1
g166
tp2457
(g1795
g153
tp2458
g32
g32
tp2459
F-376.8994392971434
s((I1
S'14'
p2460
tp2461
(g196
S'10'
p2462
tp2463
g6
g6
tp2464
F-344.7815880961591
s((I0
g20
tp2465
(g1376
g15
tp2466
g7
g6
tp2467
F-2195.608123182902
s((I1
g9
tp2468
(g286
g214
tp2469
g6
g7
tp2470
F-10334.4233603753
s((I0
g68
tp2471
(g100
S'10'
p2472
tp2473
g32
g32
tp2474
F670.47651722345
s((I0
g9
tp2475
(S'open 2'
p2476
g214
tp2477
g7
g6
tp2478
F8235.03063865967
s((I0
g85
tp2479
(g87
g265
tp2480
g31
g32
tp2481
F-92.33048691848903
s((I0
g214
tp2482
(g213
g243
tp2483
g7
g6
tp2484
F-1267.3003441929206
s((I0
g68
tp2485
(g40
S'13'
p2486
tp2487
g31
g31
tp2488
F-482.3834349445921
s((I0
g68
tp2489
(g40
g166
tp2490
g31
g32
tp2491
F-647.3600341030674
s((I0
g873
tp2492
(g139
g268
tp2493
g53
g53
tp2494
F5508.027375848028
s((I1
g91
tp2495
(S'blocked 4'
p2496
g91
tp2497
g96
g96
tp2498
F-2828.053412115493
s((I1
S'13'
p2499
tp2500
(g196
S'10'
p2501
tp2502
g7
g6
tp2503
F-17.17275191679051
s((I0
g20
tp2504
(g328
S'14'
p2505
tp2506
g7
g7
tp2507
F133.36554892330525
s((I0
g38
tp2508
(g40
S'11'
p2509
tp2510
g31
g32
tp2511
F-412.8576372118801
s((I0
g492
tp2512
(g139
g48
tp2513
g54
g53
tp2514
F8621.546113697774
s((I0
g4
tp2515
(g886
g15
tp2516
g6
g7
tp2517
F-723.1402911329484
s((I1
g9
tp2518
(g247
S'11'
p2519
tp2520
g6
g6
tp2521
F25.808909951463534
s((I0
g605
tp2522
(g1889
g298
tp2523
g607
g302
tp2524
F227.7116550747237
s(g1034
I1
I01
I01
tp2525
F25817.629723261383
s((I1
g146
tp2526
(g148
g134
tp2527
g151
g151
tp2528
F-26.99248993900401
s((I0
g320
tp2529
(g74
S'15'
p2530
tp2531
g7
g7
tp2532
F-16.96052787370994
s((I1
g20
tp2533
(g45
g243
tp2534
g6
g6
tp2535
F-3975.1871856970865
s((I1
g268
tp2536
(g270
g492
tp2537
g54
g54
tp2538
F1534.4697408064465
s((I0
g9
tp2539
(g228
S'16'
p2540
tp2541
g7
g7
tp2542
F-285.62773164176934
s((I0
g15
tp2543
(g1376
g1
tp2544
g6
g6
tp2545
F921.8197237826437
s((I1
g48
tp2546
(g270
g51
tp2547
g53
g54
tp2548
F4553.215789655778
s((I0
g85
tp2549
(g87
g68
tp2550
g31
g32
tp2551
F-4136.640049637806
s((I1
g320
tp2552
(g196
g20
tp2553
g6
g6
tp2554
F-2436.184075822767
s((I1
S'14'
p2555
tp2556
(g196
S'10'
p2557
tp2558
g7
g6
tp2559
F1937.6836372034509
s((I1
g1
tp2560
(g57
g20
tp2561
g7
g7
tp2562
F-16124.411811054173
s((I1
g1511
tp2563
(g1513
g1511
tp2564
g1032
g2104
tp2565
F-6243.4913660843185
s((I0
g257
tp2566
(g295
g257
tp2567
g96
g97
tp2568
F20500.137749738275
s((I0
g9
tp2569
(g328
S'15'
p2570
tp2571
g6
g6
tp2572
F-177.74189634520013
s((I1
g9
tp2573
(g22
g320
tp2574
g7
g6
tp2575
F2558.4212764789963
s((I0
g29
tp2576
(g100
S'13'
p2577
tp2578
g32
g31
tp2579
F704.2288863972552
s((I0
g1547
tp2580
(g1780
g605
tp2581
g302
g302
tp2582
F-6723.841230022619
s((I0
g20
tp2583
(g228
S'14'
p2584
tp2585
g7
g6
tp2586
F33.2308126203846
s((I1
g9
tp2587
(g128
g23
tp2588
g7
g6
tp2589
F-976.915692675277
s((I1
g9
tp2590
(g11
S'14'
p2591
tp2592
g6
g6
tp2593
F65.73188702719051
s((I1
g178
tp2594
(g28
g166
tp2595
g32
g32
tp2596
F-1587.4775343199947
s((I1
g91
tp2597
(g1091
g422
tp2598
g96
g96
tp2599
F-4795.057410479244
s((I1
g15
tp2600
(g45
g23
tp2601
g6
g6
tp2602
F-339.731100361928
s((I0
g9
tp2603
(g2264
S'15'
p2604
tp2605
g6
g7
tp2606
F2095.739220579082
s((I0
g320
tp2607
(g193
g1
tp2608
g7
g7
tp2609
F433.83483285585754
s((I1
g559
tp2610
(g561
g562
tp2611
g2155
g2155
tp2612
F-4171.846608430232
s((I0
g70
tp2613
(S'blocked 3'
p2614
g153
tp2615
g32
g32
tp2616
F24603.784953836384
s((I1
g559
tp2617
(S'open 2'
p2618
g1619
tp2619
g564
g2155
tp2620
F803.3271361802938
s((I1
g146
tp2621
(g148
g134
tp2622
g136
g151
tp2623
F-12.772975284210407
s((I0
g166
tp2624
(g100
g178
tp2625
g32
g32
tp2626
F41.82432047524719
s((I0
g412
tp2627
(g282
g134
tp2628
g136
g151
tp2629
F3432.0585713111873
s((I0
g70
tp2630
(g87
S'13'
p2631
tp2632
g31
g32
tp2633
F-269.5548282749691
s((I1
g1511
tp2634
(g1513
g1511
tp2635
g2104
g1032
tp2636
F5665.695736674719
s((I1
g20
tp2637
(g384
g15
tp2638
g6
g7
tp2639
F-7024.715713093238
s((I1
S'13'
p2640
tp2641
(g196
S'10'
p2642
tp2643
g6
g7
tp2644
F-53.985198311268576
s((I1
g1
tp2645
(g351
g9
tp2646
g6
g6
tp2647
F-4652.731231315406
s((I1
S'15'
p2648
tp2649
(g196
g20
tp2650
g7
g7
tp2651
F379.36749371607243
s((I1
g166
tp2652
(g1448
g166
tp2653
g31
g32
tp2654
F606.7660112441688
s((I1
g91
tp2655
(g93
g94
tp2656
g97
g97
tp2657
F-8549.108787080078
s((I0
g68
tp2658
(g40
g29
tp2659
g31
g31
tp2660
F-631.4705163976582
s((I1
g214
tp2661
(g57
g9
tp2662
g6
g6
tp2663
F-7978.662677554513
s((I1
S'13'
p2664
tp2665
(g196
g214
tp2666
g6
g7
tp2667
F44.15809091394245
s((I1
g243
tp2668
(g196
g9
tp2669
g7
g6
tp2670
F3537.4121463434885
s((I0
g1
tp2671
(g213
g214
tp2672
g7
g6
tp2673
F2277.0755118135107
s((I1
g70
tp2674
(g952
g68
tp2675
g31
g32
tp2676
F319.29508779197874
s((I0
g91
tp2677
(g862
g257
tp2678
g97
g97
tp2679
F-5977.262729769679
s((I1
g20
tp2680
(g813
g4
tp2681
g7
g7
tp2682
F-3453.922439861698
s((I0
g1
tp2683
(S'blocked 2'
p2684
g214
tp2685
g7
g7
tp2686
F-2274.8267532953114
s((I0
S'10'
p2687
tp2688
(g193
g1
tp2689
g7
g6
tp2690
F1093.1428203562566
s((I1
S'12'
p2691
tp2692
(g196
g20
tp2693
g6
g7
tp2694
F-74.31121883195388
s((I1
g149
tp2695
(g567
g1590
tp2696
g151
g151
tp2697
F-5462.89662945302
s((I0
g243
tp2698
(g193
g20
tp2699
g7
g7
tp2700
F-462.78889448437263
s((I1
S'1'
p2701
tp2702
(S'blocked 4'
p2703
S'11'
p2704
tp2705
g1189
g1189
tp2706
F-1301.8459702095522
s((I1
S'11'
p2707
tp2708
(g28
g29
tp2709
g32
g32
tp2710
F-382.1901675495446
s((I0
g131
tp2711
(g555
g556
tp2712
g136
g151
tp2713
F1601.7025592984662
s((I1
g1
tp2714
(g57
S'10'
p2715
tp2716
g6
g7
tp2717
F58.40105463136871
s((I0
g131
tp2718
(g1366
g174
tp2719
g151
g136
tp2720
F3551.9075729612905
s((I0
g243
tp2721
(g193
g1
tp2722
g7
g7
tp2723
F-185.16981331458715
s((I0
g9
tp2724
(g746
g9
tp2725
g6
g7
tp2726
F8559.720792126509
s((I1
g15
tp2727
(g45
g23
tp2728
g7
g7
tp2729
F128.9991044280988
s((I1
g298
tp2730
(g906
g1781
tp2731
g607
g302
tp2732
F-799.1412731680753
s((I1
g166
tp2733
(g376
g29
tp2734
g31
g32
tp2735
F82.54464034066996
s((I0
g48
tp2736
(S'open 3'
p2737
g48
tp2738
g53
g53
tp2739
F-23687.60291970677
s((I1
g15
tp2740
(g361
g214
tp2741
g6
g6
tp2742
F-8390.226592200686
s((I1
g9
tp2743
(g401
S'14'
p2744
tp2745
g7
g7
tp2746
F-578.9563398469876
s((I0
g94
tp2747
(g1043
g91
tp2748
g97
g96
tp2749
F-28538.468901098764
s((I0
g1547
tp2750
(g1780
g452
tp2751
g607
g607
tp2752
F-3478.584386430665
s((I1
g20
tp2753
(g184
S'16'
p2754
tp2755
g7
g6
tp2756
F542.8863192616158
s((I1
g91
tp2757
(g1405
g257
tp2758
g97
g96
tp2759
F16590.248216335665
s((I1
g693
tp2760
(S'open 3'
p2761
g307
tp2762
g312
g313
tp2763
F-1239.9330688606078
s((I1
g214
tp2764
(g460
g214
tp2765
g7
g7
tp2766
F2227.088679964459
s((I1
g174
tp2767
(g447
g134
tp2768
g151
g151
tp2769
F-766.6076715450877
s((I1
g1
tp2770
(g57
g15
tp2771
g6
g7
tp2772
F1456.3502473623303
s((I1
g20
tp2773
(g45
g243
tp2774
g7
g7
tp2775
F3779.395420756528
s((I0
g68
tp2776
(g40
S'12'
p2777
tp2778
g32
g31
tp2779
F-971.2224233639024
s((I0
g265
tp2780
(g100
g85
tp2781
g31
g32
tp2782
F-723.953588635365
s((I1
g320
tp2783
(g196
g214
tp2784
g7
g7
tp2785
F263.385116927316
s((I1
g9
tp2786
(g22
g320
tp2787
g7
g7
tp2788
F8115.170985478746
s((I1
g15
tp2789
(g361
g15
tp2790
g7
g6
tp2791
F5955.932442537973
s((I0
g1
tp2792
(g2684
g214
tp2793
g6
g6
tp2794
F-1292.860596012296
s((I0
g214
tp2795
(g1376
g214
tp2796
g6
g7
tp2797
F1410.8321727688046
s((I0
g243
tp2798
(g193
g1
tp2799
g6
g6
tp2800
F359.05970173838074
s((I0
g91
tp2801
(g1649
g94
tp2802
g97
g97
tp2803
F2027.7494347442052
s((I1
g20
tp2804
(g290
g214
tp2805
g6
g6
tp2806
F-12186.168659135006
s((I1
g174
tp2807
(g148
g131
tp2808
g136
g151
tp2809
F4814.545144483982
s((I1
g1
tp2810
(g57
S'10'
p2811
tp2812
g6
g6
tp2813
F684.2475697887634
s(g494
I5
I00
I01
tp2814
F-5431.128564684379
s((I0
g131
tp2815
(g1366
g134
tp2816
g151
g136
tp2817
F-3207.6227878849854
s((I0
g20
tp2818
(g61
g15
tp2819
g7
g6
tp2820
F-19922.705027254346
s((I0
g51
tp2821
(g139
g268
tp2822
g53
g53
tp2823
F-4186.417178891937
s((I0
g149
tp2824
(g282
g146
tp2825
g151
g151
tp2826
F48.41089582049369
s((I0
g214
tp2827
(g1376
g15
tp2828
g7
g6
tp2829
F-21514.449911270407
s((I0
g214
tp2830
(g213
g1
tp2831
g6
g6
tp2832
F-1863.7651215128217
s((I1
g320
tp2833
(g196
g214
tp2834
g6
g7
tp2835
F-70.56404204118178
s((I0
g131
tp2836
(g555
g149
tp2837
g151
g136
tp2838
F-2149.765212840405
s((I0
g257
tp2839
(g295
g91
tp2840
g97
g96
tp2841
F-14915.096531077377
s((I1
g85
tp2842
(S'blocked 3'
p2843
S'10'
p2844
tp2845
g32
g31
tp2846
F-361.4106685080468
s((I0
g9
tp2847
(S'open 3'
p2848
S'16'
p2849
tp2850
g7
g6
tp2851
F301.6592495717267
s((I0
g1
tp2852
(g61
g15
tp2853
g7
g6
tp2854
F-8272.189833735994
s((I1
S'12'
p2855
tp2856
(g28
g85
tp2857
g32
g31
tp2858
F332.776105418241
s((I1
S'11'
p2859
tp2860
(g196
g9
tp2861
g7
g6
tp2862
F-223.4623282775359
s((I0
S'11'
p2863
tp2864
(g74
S'14'
p2865
tp2866
g7
g6
tp2867
F16.310468087363777
s((I1
g9
tp2868
(g1380
g23
tp2869
g7
g6
tp2870
F1323.8927573871565
s((I1
g15
tp2871
(g286
S'10'
p2872
tp2873
g6
g6
tp2874
F1590.1856177391892
s(g929
I1
I01
I00
tp2875
F25253.354085952593
s((I0
g38
tp2876
(g40
S'10'
p2877
tp2878
g32
g31
tp2879
F435.3389761049046
s((I1
g15
tp2880
(g57
g214
tp2881
g6
g6
tp2882
F-16856.437411282102
s((I0
g9
tp2883
(g328
S'11'
p2884
tp2885
g6
g6
tp2886
F-1410.5751740309556
s((I1
S'13'
p2887
tp2888
(g28
g38
tp2889
g32
g32
tp2890
F-417.4441583464772
s((I0
g29
tp2891
(g100
S'10'
p2892
tp2893
g32
g32
tp2894
F-30.99102191267906
s((I1
g94
tp2895
(g368
g257
tp2896
g96
g97
tp2897
F-926.0334832089948
s((I1
g20
tp2898
(g401
S'15'
p2899
tp2900
g7
g7
tp2901
F151.9920255351432
s(g61
I4
I01
I00
tp2902
F3994.1609738796146
s((I1
g268
tp2903
(g1340
g48
tp2904
g53
g54
tp2905
F33824.68727611826
s((I0
g85
tp2906
(g40
g29
tp2907
g31
g32
tp2908
F-4508.444997846442
s((I1
g166
tp2909
(g376
g68
tp2910
g31
g32
tp2911
F104.05221222151309
s((I0
S'11'
p2912
tp2913
(g74
g20
tp2914
g6
g6
tp2915
F-284.6779485311205
s((I0
g15
tp2916
(g193
g214
tp2917
g7
g6
tp2918
F1743.347588551055
s((I0
g85
tp2919
(S'blocked 2'
p2920
g29
tp2921
g32
g31
tp2922
F1908.7354723370365
s((I0
g85
tp2923
(g40
g29
tp2924
g32
g32
tp2925
F557.2660100392156
s((I1
g412
tp2926
(g567
g134
tp2927
g151
g151
tp2928
F257.77583847184246
s((I0
g412
tp2929
(g282
g134
tp2930
g151
g136
tp2931
F-2699.857681952537
s((I0
S'11'
p2932
tp2933
(g74
S'13'
p2934
tp2935
g6
g6
tp2936
F-428.615211053798
s(g143
I1
I00
I01
tp2937
F-75385.1358127158
s((I0
g9
tp2938
(g890
g4
tp2939
g6
g6
tp2940
F1525.8767292267719
s((I0
g70
tp2941
(g87
g85
tp2942
g32
g32
tp2943
F9189.078633045166
s((I1
S'10'
p2944
tp2945
(g196
g9
tp2946
g7
g7
tp2947
F-3012.6309732695718
s((I1
g9
tp2948
(S'blocked 4'
p2949
S'11'
p2950
tp2951
g7
g6
tp2952
F536.616897616579
s((I1
g257
tp2953
(g2428
g91
tp2954
g96
g97
tp2955
F-28331.50179864658
s((I0
g9
tp2956
(g82
g1
tp2957
g7
g7
tp2958
F-4698.467468871521
s((I1
g134
tp2959
(g447
g149
tp2960
g151
g136
tp2961
F-3864.6972003045717
s(g1034
I1
I00
I00
tp2962
F-21983.465977291053
s((I1
g1
tp2963
(g57
g320
tp2964
g7
g6
tp2965
F-868.7210748895645
s(g1575
I3
I01
I01
tp2966
F85874.15277329508
s((I1
g9
tp2967
(g640
S'13'
p2968
tp2969
g7
g7
tp2970
F132.70843884054813
s((I1
g1
tp2971
(g756
g20
tp2972
g7
g6
tp2973
F2123.6991705753026
s(g295
I2
I01
I00
tp2974
F2301.9001712238787
s((I0
g131
tp2975
(g282
g174
tp2976
g136
g136
tp2977
F465.50736690649785
s((I1
S'10'
p2978
tp2979
(g28
g166
tp2980
g31
g31
tp2981
F55.53147576062429
s((I0
g131
tp2982
(g1366
g146
tp2983
g151
g136
tp2984
F-630.0364234509009
s((I0
g85
tp2985
(g40
g265
tp2986
g31
g32
tp2987
F-575.7596294010194
s(g460
I5
I00
I01
tp2988
F-1935.075636108298
s((I1
g268
tp2989
(g270
g268
tp2990
g53
g54
tp2991
F-763.2922097918673
s((I1
g20
tp2992
(g184
S'16'
p2993
tp2994
g6
g7
tp2995
F-325.4983895059653
s((I0
g265
tp2996
(g100
S'13'
p2997
tp2998
g32
g31
tp2999
F384.6263546204156
s((I1
g214
tp3000
(g756
g20
tp3001
g6
g6
tp3002
F-419.8412001561994
s(g756
I3
I01
I00
tp3003
F4557.4407076062025
s((I1
S'13'
p3004
tp3005
(g196
g20
tp3006
g6
g6
tp3007
F-250.98363309192496
s((I0
g9
tp3008
(g2008
S'11'
p3009
tp3010
g6
g7
tp3011
F-1079.8405149194887
s((I1
g257
tp3012
(g2357
g91
tp3013
g97
g97
tp3014
F-987.1640254334616
s((I0
g1
tp3015
(g74
S'10'
p3016
tp3017
g7
g6
tp3018
F461.9232242764361
s((I1
g48
tp3019
(g2241
g492
tp3020
g54
g54
tp3021
F13844.638460070877
s((I1
g153
tp3022
(g155
g29
tp3023
g32
g31
tp3024
F-27.74633190220339
s((I0
g492
tp3025
(g139
g268
tp3026
g54
g53
tp3027
F5156.9381777264725
s((I1
g166
tp3028
(g1448
g166
tp3029
g32
g31
tp3030
F-599.2832357706054
s((I0
g70
tp3031
(g40
g29
tp3032
g31
g31
tp3033
F33.27671671935034
s((I1
g9
tp3034
(S'open 3'
p3035
g214
tp3036
g6
g7
tp3037
F-10428.456400529834
s((I0
g9
tp3038
(g328
S'16'
p3039
tp3040
g6
g6
tp3041
F-67.70890149823362
s((I0
g15
tp3042
(g1376
g20
tp3043
g7
g6
tp3044
F11331.072977508258
s((I1
g15
tp3045
(g286
g15
tp3046
g7
g7
tp3047
F-9925.825314374975
s((I0
g605
tp3048
(g1889
g452
tp3049
g302
g607
tp3050
F6867.04963642106
s((I1
g20
tp3051
(g640
S'12'
p3052
tp3053
g7
g7
tp3054
F98.6074932698198
s((I1
g131
tp3055
(g2135
S'10'
p3056
tp3057
g136
g136
tp3058
F1883.661996886247
s(g580
I1
I01
I00
tp3059
F-4902.211183661128
s((I0
g214
tp3060
(g213
g15
tp3061
g6
g7
tp3062
F3705.6380671474917
s((I0
g320
tp3063
(g74
S'14'
p3064
tp3065
g7
g7
tp3066
F-723.3353583102546
s((I0
g265
tp3067
(g100
S'12'
p3068
tp3069
g32
g32
tp3070
F-565.8229253762523
s((I1
S'13'
p3071
tp3072
(g196
g9
tp3073
g6
g7
tp3074
F-574.6194046309511
s((I1
S'10'
p3075
tp3076
(g28
g153
tp3077
g31
g32
tp3078
F-1277.6682767377706
s(g121
I3
I00
I01
tp3079
F-3037.036529189407
s((I0
g29
tp3080
(g100
g68
tp3081
g31
g31
tp3082
F-606.9518833883251
s((I1
g20
tp3083
(g45
S'10'
p3084
tp3085
g7
g6
tp3086
F402.2365200416227
s(g756
I4
I01
I00
tp3087
F14460.546095850465
s((I1
g85
tp3088
(g2843
S'10'
p3089
tp3090
g31
g32
tp3091
F424.8141625504728
s((I0
g91
tp3092
(g108
g257
tp3093
g96
g96
tp3094
F-3144.640135638914
s((I0
g15
tp3095
(g213
g1
tp3096
g6
g7
tp3097
F23104.228729858918
s((I0
g605
tp3098
(g1889
g452
tp3099
g607
g607
tp3100
F1509.44494350032
s((I1
g91
tp3101
(g1193
g91
tp3102
g97
g97
tp3103
F13380.889850101315
s(g65
I2
I00
I01
tp3104
F-11529.05210536407
s((I0
g9
tp3105
(g328
g243
tp3106
g6
g7
tp3107
F-1552.7837698638023
s((I1
g131
tp3108
(g133
g146
tp3109
g136
g136
tp3110
F-499.86448407238015
s((I1
S'12'
p3111
tp3112
(g28
g166
tp3113
g31
g32
tp3114
F-384.65951141057974
s((I0
g214
tp3115
(g213
S'10'
p3116
tp3117
g7
g6
tp3118
F-1872.1693631727508
s((I0
S'11'
p3119
tp3120
(g74
g20
tp3121
g7
g6
tp3122
F126.36199721220896
s((I1
S'15'
p3123
tp3124
(g196
g320
tp3125
g6
g7
tp3126
F-37.14755243844867
s((I1
g904
tp3127
(g906
g452
tp3128
g302
g607
tp3129
F975.7270272343732
s((I0
g9
tp3130
(g189
S'10'
p3131
tp3132
g6
g6
tp3133
F637.8996433511801
s((I1
g9
tp3134
(S'open 3'
p3135
S'14'
p3136
tp3137
g7
g7
tp3138
F-424.85760861177505
s((I1
g268
tp3139
(g270
g51
tp3140
g54
g53
tp3141
F-2226.064448956036
s((I1
g268
tp3142
(S'open 2'
p3143
g492
tp3144
g53
g53
tp3145
F4857.872482239667
s(g368
I4
I00
I00
tp3146
F-9018.547279344424
s((I1
S'10'
p3147
tp3148
(g28
g38
tp3149
g31
g32
tp3150
F-602.4366053938089
s((I1
g85
tp3151
(g376
g265
tp3152
g31
g31
tp3153
F575.3968282757054
s((I0
g9
tp3154
(g2476
g214
tp3155
g6
g7
tp3156
F1258.5078239297325
s((I0
g15
tp3157
(g213
S'10'
p3158
tp3159
g6
g6
tp3160
F903.6302692900858
s((I0
g85
tp3161
(g87
g153
tp3162
g32
g31
tp3163
F207.83319693411977
s((I1
g15
tp3164
(g756
g9
tp3165
g7
g6
tp3166
F7522.0251912003905
s((I1
g153
tp3167
(g952
S'10'
p3168
tp3169
g31
g31
tp3170
F346.6890064951042
s((I0
g15
tp3171
(g890
g4
tp3172
g7
g6
tp3173
F-3119.2789066791847
s(g886
I6
I01
I01
tp3174
F-15427.480195667093
s((I1
S'13'
p3175
tp3176
(g196
g4
tp3177
g6
g7
tp3178
F-1080.5998667323588
s((I0
S'15'
p3179
tp3180
(g74
g20
tp3181
g6
g7
tp3182
F1021.4582917659682
s((I1
S'14'
p3183
tp3184
(g196
S'11'
p3185
tp3186
g7
g6
tp3187
F-129.9759463047541
s((I0
S'10'
p3188
tp3189
(g594
g134
tp3190
g151
g136
tp3191
F1473.7643857922471
s(S'blocked 3'
p3192
I1
I00
I00
tp3193
F-35259.78667351257
s((I0
g298
tp3194
(g300
g452
tp3195
g607
g607
tp3196
F666.4545516162084
s((I0
g243
tp3197
(g193
g214
tp3198
g7
g6
tp3199
F-283.00616408521086
s((I0
g153
tp3200
(S'open 4'
p3201
g70
tp3202
g32
g31
tp3203
F-16501.830509433894
s((I1
g268
tp3204
(g510
g268
tp3205
g54
g54
tp3206
F-38057.588808392306
s((I1
S'15'
p3207
tp3208
(g196
g320
tp3209
g7
g7
tp3210
F386.7388166703092
s((I1
g9
tp3211
(g921
g15
tp3212
g7
g6
tp3213
F19431.523765205548
s((I1
g15
tp3214
(g286
g243
tp3215
g7
g6
tp3216
F685.7547348408975
s((I1
g20
tp3217
(g45
S'10'
p3218
tp3219
g6
g6
tp3220
F-1910.4805485801235
s((I0
g257
tp3221
(g108
g257
tp3222
g97
g96
tp3223
F-27385.231163151897
s((I1
g320
tp3224
(g196
g9
tp3225
g6
g6
tp3226
F1120.8027686939993
s((I1
g15
tp3227
(g17
g4
tp3228
g7
g7
tp3229
F-25293.709016593828
s((I1
g91
tp3230
(S'open 2'
p3231
g257
tp3232
g96
g96
tp3233
F-6755.999684720389
s((I0
g23
tp3234
(g193
g15
tp3235
g7
g6
tp3236
F-1498.1728940225778
s((I0
g153
tp3237
(S'blocked 4'
p3238
S'13'
p3239
tp3240
g31
g32
tp3241
F-499.81998586424186
s((I1
g9
tp3242
(g501
g214
tp3243
g6
g7
tp3244
F48.19762874707874
s((I1
g904
tp3245
(g906
g452
tp3246
g607
g302
tp3247
F-359.39909008159117
s((I0
g4
tp3248
(g213
g9
tp3249
g7
g7
tp3250
F919.8869312591262
s((I0
g70
tp3251
(g87
g166
tp3252
g31
g31
tp3253
F-767.5379641099746
s((I0
g85
tp3254
(g87
g178
tp3255
g32
g32
tp3256
F36.42386544673418
s((I1
g131
tp3257
(g823
g146
tp3258
g151
g151
tp3259
F-1432.065574031335
s((I1
g20
tp3260
(S'blocked 2'
p3261
g1
tp3262
g7
g7
tp3263
F-2891.085634477664
s((I1
S'12'
p3264
tp3265
(g196
g9
tp3266
g6
g6
tp3267
F1975.577725127483
s((I0
g9
tp3268
(S'open 3'
p3269
g20
tp3270
g6
g6
tp3271
F-14620.85678179271
s((I1
g146
tp3272
(g148
g1590
tp3273
g151
g151
tp3274
F-62.982910015404926
s((I1
g91
tp3275
(S'open 3'
p3276
g94
tp3277
g96
g96
tp3278
F1625.5871180813306
s((I1
g91
tp3279
(g1405
g257
tp3280
g96
g97
tp3281
F-17563.238563988252
s((I1
g70
tp3282
(g1488
S'10'
p3283
tp3284
g31
g31
tp3285
F1009.7014907410079
s((I1
g307
tp3286
(S'open 2'
p3287
g696
tp3288
g313
g313
tp3289
F1541.7701140074937
s((I0
g865
tp3290
(g867
g868
tp3291
g871
g870
tp3292
F290.07066030163554
s((I1
S'11'
p3293
tp3294
(g196
g9
tp3295
g6
g7
tp3296
F1226.662211303506
s((I0
S'10'
p3297
tp3298
(g193
g15
tp3299
g6
g6
tp3300
F245.79906539925608
s((I0
g70
tp3301
(g1971
g68
tp3302
g32
g31
tp3303
F3229.883808558495
s((I0
g268
tp3304
(g50
g51
tp3305
g53
g53
tp3306
F-4743.2704626219065
s((I0
g70
tp3307
(g87
g85
tp3308
g31
g31
tp3309
F-7816.592749937773
s((I0
g166
tp3310
(g100
g68
tp3311
g32
g31
tp3312
F36.397519264584275
s((I0
g298
tp3313
(g300
g1547
tp3314
g607
g607
tp3315
F548.2425916062163
s((I0
g153
tp3316
(S'open 3'
p3317
g166
tp3318
g32
g32
tp3319
F-1783.6916942327628
s((I0
g257
tp3320
(g108
g91
tp3321
g97
g97
tp3322
F-31202.392019277908
s((I0
S'13'
p3323
tp3324
(g74
g9
tp3325
g7
g7
tp3326
F-730.1002878135296
s((I1
g9
tp3327
(g2117
g243
tp3328
g7
g6
tp3329
F-3356.0708292109225
s((I0
g166
tp3330
(g100
g178
tp3331
g31
g31
tp3332
F725.7551348260974
s((I1
g20
tp3333
(g45
g15
tp3334
g6
g6
tp3335
F4712.872152174505
s((I0
g85
tp3336
(g87
g85
tp3337
g32
g32
tp3338
F1441.0875862785433
s((I0
g20
tp3339
(g61
g15
tp3340
g6
g7
tp3341
F10155.710798268927
s((I1
g91
tp3342
(g254
g257
tp3343
g97
g97
tp3344
F-31541.932933783104
s((I0
g51
tp3345
(g139
g268
tp3346
g54
g54
tp3347
F5790.595683087038
s((I1
g20
tp3348
(g11
S'11'
p3349
tp3350
g6
g7
tp3351
F-521.5214055187283
s((I1
g48
tp3352
(g510
g51
tp3353
g53
g54
tp3354
F11826.236965504888
s((I0
g23
tp3355
(g74
g9
tp3356
g7
g6
tp3357
F-3545.7478009433407
s((I1
g9
tp3358
(g536
S'10'
p3359
tp3360
g7
g6
tp3361
F984.6860235816284
s((I0
g1
tp3362
(g886
g15
tp3363
g6
g6
tp3364
F2780.1258858505353
s((I0
g70
tp3365
(g87
S'10'
p3366
tp3367
g32
g32
tp3368
F-82.99890466886512
s((I1
g9
tp3369
(g184
S'16'
p3370
tp3371
g7
g6
tp3372
F-177.80601677203595
s((I1
g20
tp3373
(g286
g320
tp3374
g6
g7
tp3375
F-1481.318630689828
s((I0
g1511
tp3376
(g1029
g2102
tp3377
g1032
g1032
tp3378
F2209.8466807077834
s((I0
S'10'
p3379
tp3380
(g193
g9
tp3381
g6
g7
tp3382
F4056.6639011083475
s((I0
S'2'
p3383
tp3384
(S'open 3'
p3385
g865
tp3386
g870
g871
tp3387
F-15309.930998770016
s(g196
I13
I00
I00
tp3388
F-483.92559313773165
s((I0
g9
tp3389
(g2264
S'11'
p3390
tp3391
g6
g7
tp3392
F1511.7015484682972
s((I1
g214
tp3393
(g57
g15
tp3394
g7
g6
tp3395
F5656.575874369581
s((I0
g1
tp3396
(g213
g9
tp3397
g6
g6
tp3398
F2666.7189529811767
s((I1
g174
tp3399
(g148
g280
tp3400
g136
g151
tp3401
F827.7473195861143
s((I1
g134
tp3402
(g447
S'10'
p3403
tp3404
g151
g151
tp3405
F-1988.0505514922418
s((I1
g70
tp3406
(g952
g68
tp3407
g32
g31
tp3408
F-337.12713976022025
s((I1
g146
tp3409
(g148
g149
tp3410
g151
g151
tp3411
F-760.8417381456386
s((I0
g70
tp3412
(g87
g38
tp3413
g32
g32
tp3414
F-8306.713006331489
s((I1
g48
tp3415
(S'blocked 3'
p3416
g492
tp3417
g54
g54
tp3418
F4296.223984851282
s((I1
g131
tp3419
(g2439
g134
tp3420
g136
g151
tp3421
F6822.432747631298
s((I1
g9
tp3422
(g640
S'11'
p3423
tp3424
g7
g7
tp3425
F668.5038064458862
s((I0
S'11'
p3426
tp3427
(g74
g9
tp3428
g6
g6
tp3429
F-396.45731330922797
s((I0
g9
tp3430
(g328
g320
tp3431
g7
g6
tp3432
F-803.5847533682137
s((I0
g70
tp3433
(g2614
g153
tp3434
g31
g31
tp3435
F-11224.247094093878
s((I0
g1
tp3436
(g35
g214
tp3437
g6
g7
tp3438
F3313.0717561855827
s((I0
g149
tp3439
(g594
g134
tp3440
g151
g151
tp3441
F744.0736064329675
s(g196
I14
I00
I01
tp3442
F-1779.0275464121219
s((I0
S'10'
p3443
tp3444
(g193
g20
tp3445
g6
g7
tp3446
F2269.752631271661
s((I1
g70
tp3447
(g952
S'11'
p3448
tp3449
g32
g31
tp3450
F-810.6861190256819
s((I1
g214
tp3451
(g756
g1
tp3452
g6
g6
tp3453
F-3034.6063839726735
s((I0
g131
tp3454
(g1103
g556
tp3455
g151
g136
tp3456
F-8696.057981899927
s((I1
S'14'
p3457
tp3458
(g196
g23
tp3459
g7
g7
tp3460
F-300.9079322228581
s((I1
g91
tp3461
(g3192
g94
tp3462
g97
g97
tp3463
F-250.83210824972969
s((I0
g70
tp3464
(g2614
g70
tp3465
g32
g32
tp3466
F4730.537848607781
s((I1
g20
tp3467
(g2165
S'13'
p3468
tp3469
g6
g7
tp3470
F-143.84284043706833
s((I0
g166
tp3471
(g40
S'11'
p3472
tp3473
g32
g32
tp3474
F379.79321453976667
s((I1
g257
tp3475
(g93
g257
tp3476
g96
g96
tp3477
F-23645.233982505924
s((I0
g257
tp3478
(g295
g91
tp3479
g97
g97
tp3480
F-25478.67670853064
s((I1
g243
tp3481
(g196
g9
tp3482
g6
g7
tp3483
F683.4003077144666
s((I1
g131
tp3484
(g2439
g146
tp3485
g136
g151
tp3486
F-15.96621910526592
s((I1
g1
tp3487
(g351
g1
tp3488
g6
g6
tp3489
F275.2627557692069
s((I1
g91
tp3490
(g254
g257
tp3491
g96
g97
tp3492
F16960.300128732375
s((I0
g91
tp3493
(g1649
g94
tp3494
g97
g96
tp3495
F-17075.945599563227
s((I1
g9
tp3496
(S'blocked 4'
p3497
g15
tp3498
g7
g7
tp3499
F-7931.611264859959
s((I1
g9
tp3500
(g17
g4
tp3501
g7
g7
tp3502
F788.8505013284372
s((I0
g1547
tp3503
(g1780
g1781
tp3504
g302
g302
tp3505
F110.21239150945536
s((I0
g9
tp3506
(g82
S'11'
p3507
tp3508
g6
g6
tp3509
F149.85637816953772
s(g196
I16
I00
I01
tp3510
F85.44745936929627
s((I0
g1590
tp3511
(g282
g146
tp3512
g136
g151
tp3513
F-153.7668701548013
s((I1
g9
tp3514
(g401
g243
tp3515
g7
g6
tp3516
F-1421.7580236437354
s((I1
g473
tp3517
(S'blocked 2'
p3518
S'6'
p3519
tp3520
g312
g312
tp3521
F5364.875225541344
s((I1
S'14'
p3522
tp3523
(g196
g23
tp3524
g6
g7
tp3525
F-732.1629208718847
s((I0
g68
tp3526
(g100
S'10'
p3527
tp3528
g31
g31
tp3529
F-771.9100788247833
s((I1
g1511
tp3530
(g1513
g1511
tp3531
g2104
g2104
tp3532
F7045.679388310533
s((I1
S'10'
p3533
tp3534
(g28
g70
tp3535
g32
g31
tp3536
F-60.31714296523785
s((I0
g9
tp3537
(g328
S'13'
p3538
tp3539
g6
g7
tp3540
F-377.07674335660545
s((I0
S'10'
p3541
tp3542
(g193
g214
tp3543
g7
g6
tp3544
F-418.0820059090234
s(g196
I15
I01
I00
tp3545
F-3918.4281219887243
s((I1
g20
tp3546
(g505
S'13'
p3547
tp3548
g7
g6
tp3549
F1490.4510868816544
s((I1
g15
tp3550
(g286
g1
tp3551
g7
g6
tp3552
F8882.951027005605
s((I0
g85
tp3553
(g87
g265
tp3554
g32
g32
tp3555
F746.3166957248966
s((I1
g20
tp3556
(g17
g4
tp3557
g7
g6
tp3558
F1560.8136895960447
s((I1
g15
tp3559
(g756
g20
tp3560
g7
g7
tp3561
F2273.0710499605393
s((I1
g174
tp3562
(g148
g149
tp3563
g136
g151
tp3564
F3011.190565410631
s((I1
g1
tp3565
(g57
g243
tp3566
g7
g7
tp3567
F-743.9320701293286
s((I1
g20
tp3568
(S'open 3'
p3569
g20
tp3570
g7
g6
tp3571
F53389.25456045716
s((I1
S'12'
p3572
tp3573
(g28
g265
tp3574
g32
g31
tp3575
F257.2859626381365
s((I0
g214
tp3576
(g74
g320
tp3577
g7
g6
tp3578
F-358.5951350602153
s((I0
g20
tp3579
(g328
S'14'
p3580
tp3581
g7
g6
tp3582
F11.765089674229342
s((I1
g307
tp3583
(g309
g473
tp3584
g312
g313
tp3585
F1099.4243253078153
s((I0
g9
tp3586
(g575
S'12'
p3587
tp3588
g7
g7
tp3589
F-230.0037468299783
s((I1
g146
tp3590
(g148
g1590
tp3591
g136
g136
tp3592
F346.4662000404817
s((I1
g1
tp3593
(g57
S'10'
p3594
tp3595
g7
g7
tp3596
F-1148.5697640292565
s((I0
g178
tp3597
(g100
g29
tp3598
g31
g32
tp3599
F-323.673549680156
s((I1
g307
tp3600
(g1715
g696
tp3601
g313
g312
tp3602
F101.00820929443552
s((I0
S'13'
p3603
tp3604
(g74
g20
tp3605
g6
g6
tp3606
F580.0576881655462
s((I1
g9
tp3607
(g22
g320
tp3608
g6
g6
tp3609
F-2428.137103513884
s((I1
g9
tp3610
(g286
g214
tp3611
g7
g6
tp3612
F896.643604478882
s((I1
g48
tp3613
(g510
g51
tp3614
g54
g53
tp3615
F-13958.493586269029
s((I0
g94
tp3616
(g121
g91
tp3617
g96
g97
tp3618
F16955.702595145733
s((I1
g9
tp3619
(S'blocked 4'
p3620
S'13'
p3621
tp3622
g6
g7
tp3623
F-319.6563877624308
s((I0
g15
tp3624
(g1376
g1
tp3625
g7
g6
tp3626
F-26393.06678080761
s((I0
g85
tp3627
(g87
g70
tp3628
g32
g31
tp3629
F3686.8479752365242
s((I0
g320
tp3630
(g74
S'15'
p3631
tp3632
g7
g6
tp3633
F-1060.3380637629919
s((I1
S'11'
p3634
tp3635
(g28
g68
tp3636
g31
g31
tp3637
F-2.6257764609811356
s((I1
g20
tp3638
(g65
g20
tp3639
g7
g7
tp3640
F17507.24657317848
s((I0
g15
tp3641
(g213
g1
tp3642
g7
g6
tp3643
F-19179.92204750939
s((I0
g20
tp3644
(g1376
g15
tp3645
g6
g7
tp3646
F4807.915714068499
s((I1
g91
tp3647
(g3192
g91
tp3648
g97
g97
tp3649
F-25586.668526014397
s((I0
g214
tp3650
(g193
g1
tp3651
g7
g7
tp3652
F-1205.6707744048442
s((I1
g412
tp3653
(g1854
g174
tp3654
g151
g136
tp3655
F-3819.967284992647
s((I0
g243
tp3656
(g74
S'14'
p3657
tp3658
g7
g6
tp3659
F210.4163984843704
s((I1
g214
tp3660
(g57
g20
tp3661
g7
g7
tp3662
F7407.105616300794
s((I1
g38
tp3663
(g376
g29
tp3664
g32
g32
tp3665
F1488.3707999662156
s((I0
g605
tp3666
(g1889
g298
tp3667
g302
g607
tp3668
F-57.97517552931812
s((I0
g29
tp3669
(g100
S'11'
p3670
tp3671
g32
g31
tp3672
F567.5090223528368
s((I0
g91
tp3673
(g2208
g422
tp3674
g97
g97
tp3675
F-325.5141754011652
s((I0
g70
tp3676
(g1461
g178
tp3677
g31
g32
tp3678
F-8035.482646342102
s((I0
g91
tp3679
(g984
g91
tp3680
g97
g96
tp3681
F-12935.613891690353
s((I1
S'11'
p3682
tp3683
(g196
g1
tp3684
g7
g6
tp3685
F-696.740038188359
s((I1
g166
tp3686
(g1795
g153
tp3687
g32
g31
tp3688
F-6427.675174780441
s((I1
g166
tp3689
(g376
g265
tp3690
g31
g31
tp3691
F448.8287461840388
s((I1
g15
tp3692
(g361
g15
tp3693
g7
g7
tp3694
F-2413.797294343897
s((I1
g91
tp3695
(g2496
g91
tp3696
g97
g97
tp3697
F-2058.601101255811
s((I0
g174
tp3698
(g594
g174
tp3699
g151
g151
tp3700
F420.4906566103158
s((I0
g15
tp3701
(g213
g243
tp3702
g6
g6
tp3703
F333.15912969433145
s((I0
g214
tp3704
(g74
S'12'
p3705
tp3706
g7
g6
tp3707
F-121.1630795856212
s((I1
g9
tp3708
(g401
S'15'
p3709
tp3710
g7
g6
tp3711
F-225.8709055551401
s((I1
g85
tp3712
(g376
S'12'
p3713
tp3714
g31
g32
tp3715
F-321.26339588663564
s((I1
g307
tp3716
(g309
g310
tp3717
g312
g312
tp3718
F11206.041837518631
s((I1
g214
tp3719
(g460
g9
tp3720
g7
g6
tp3721
F1320.7831790654486
s((I0
g15
tp3722
(g213
g15
tp3723
g6
g7
tp3724
F443.50451332386956
s((I1
g91
tp3725
(g93
g94
tp3726
g96
g96
tp3727
F-7697.975055718836
s((I0
g492
tp3728
(g494
g48
tp3729
g53
g54
tp3730
F2962.413353327087
s((I1
g146
tp3731
(g148
g280
tp3732
g136
g136
tp3733
F1064.583660360001
s((I1
g15
tp3734
(g105
g20
tp3735
g6
g7
tp3736
F-9688.94977221074
s((I1
g20
tp3737
(g45
g15
tp3738
g7
g7
tp3739
F3591.3003947543502
s((I1
g1
tp3740
(g756
g1
tp3741
g7
g7
tp3742
F1117.6291744064115
s((I0
g214
tp3743
(g213
g1
tp3744
g6
g7
tp3745
F189.7735901306943
s((I1
g48
tp3746
(S'blocked 3'
p3747
g268
tp3748
g54
g54
tp3749
F19202.99848083562
s((I1
g9
tp3750
(g2949
S'11'
p3751
tp3752
g6
g7
tp3753
F1015.5692760630046
s((I1
g153
tp3754
(g2407
g166
tp3755
g31
g31
tp3756
F-740.432862992434
s((I1
g20
tp3757
(g640
S'11'
p3758
tp3759
g6
g7
tp3760
F-1285.8098766694511
s((I1
g20
tp3761
(g45
g243
tp3762
g6
g7
tp3763
F-1223.9535501512623
s((I0
g298
tp3764
(g451
g452
tp3765
g607
g607
tp3766
F9752.349555323937
s((I0
g9
tp3767
(g328
g243
tp3768
g7
g6
tp3769
F673.018474288466
s((I0
g9
tp3770
(g1729
g15
tp3771
g6
g7
tp3772
F-2817.7149587140148
s((I0
g605
tp3773
(g1889
g1781
tp3774
g302
g302
tp3775
F555.9951176282901
s((I1
g904
tp3776
(g906
g605
tp3777
g302
g607
tp3778
F-915.7723001521033
s((I1
g9
tp3779
(g11
S'13'
p3780
tp3781
g6
g6
tp3782
F1327.6649913467043
s(g494
I5
I01
I00
tp3783
F8738.848754729619
s((I0
g9
tp3784
(g328
S'15'
p3785
tp3786
g6
g7
tp3787
F536.1532552755119
s((I1
g146
tp3788
(g148
g149
tp3789
g136
g136
tp3790
F3196.9148525410983
s((I0
g1
tp3791
(g35
g214
tp3792
g7
g6
tp3793
F-4174.156827536764
s((I1
g23
tp3794
(g196
g20
tp3795
g7
g7
tp3796
F3225.972797794492
s((I0
S'10'
p3797
tp3798
(g193
g1
tp3799
g7
g7
tp3800
F163.6969940908404
s((I1
g91
tp3801
(g1193
g257
tp3802
g96
g96
tp3803
F5766.955464398685
s((I1
g15
tp3804
(g3
g1
tp3805
g7
g6
tp3806
F917.5997446225765
s(g2496
I1
I01
I01
tp3807
F84603.63166557757
s((I1
g174
tp3808
(g447
g134
tp3809
g136
g151
tp3810
F-302.2542798284624
s((I0
g131
tp3811
(g555
g149
tp3812
g136
g136
tp3813
F12147.848727856559
s((I1
g146
tp3814
(g148
g134
tp3815
g151
g136
tp3816
F-30.79921205742576
s((I1
g1
tp3817
(g57
g1
tp3818
g6
g7
tp3819
F-514.9228104791038
s((I1
g15
tp3820
(g3
g214
tp3821
g6
g7
tp3822
F1094.0377957885944
s((I0
g873
tp3823
(g1575
g48
tp3824
g54
g54
tp3825
F38459.305444172605
s((I1
g9
tp3826
(g536
S'14'
p3827
tp3828
g7
g6
tp3829
F1225.0935910159262
s((I0
g243
tp3830
(g74
S'16'
p3831
tp3832
g6
g7
tp3833
F-414.1630887409307
s(g1513
I3
I01
I00
tp3834
F10836.514600722236
s((I0
g15
tp3835
(g213
g243
tp3836
g7
g7
tp3837
F-186.19648963757564
s((I0
g4
tp3838
(g74
S'14'
p3839
tp3840
g6
g6
tp3841
F322.5015620856907
s((I0
g412
tp3842
(g282
g134
tp3843
g136
g136
tp3844
F846.0145790680201
s((I1
g114
tp3845
(g116
g117
tp3846
g119
g2063
tp3847
F-21.59574674011776
s((I1
g257
tp3848
(g368
g91
tp3849
g97
g97
tp3850
F10647.587765561231
s((I1
g9
tp3851
(g286
S'10'
p3852
tp3853
g7
g7
tp3854
F-707.0307449246865
s((I0
g9
tp3855
(g890
g4
tp3856
g7
g7
tp3857
F1955.9842487654134
s((I0
g38
tp3858
(g40
g265
tp3859
g31
g32
tp3860
F-583.2506662071168
s((I0
g9
tp3861
(S'blocked 4'
p3862
g20
tp3863
g6
g7
tp3864
F-2909.87732784226
s((I0
g20
tp3865
(g328
S'11'
p3866
tp3867
g6
g6
tp3868
F-421.30755516728686
s((I0
g605
tp3869
(g1889
g1781
tp3870
g607
g607
tp3871
F-2694.186895257187
s((I1
g9
tp3872
(g161
g4
tp3873
g7
g6
tp3874
F15840.365505317706
s((I1
g166
tp3875
(g376
g29
tp3876
g32
g31
tp3877
F-44.08902085162511
s(g61
I4
I00
I01
tp3878
F-12644.281412325718
s((I0
g29
tp3879
(g100
g68
tp3880
g32
g32
tp3881
F497.71055411425766
s((I1
g94
tp3882
(g368
g257
tp3883
g97
g97
tp3884
F-15585.722375233745
s((I0
g605
tp3885
(g1889
g1781
tp3886
g302
g607
tp3887
F-31.937492562845566
s((I0
g20
tp3888
(g228
g9
tp3889
g6
g7
tp3890
F-6637.272426902912
s((I0
g131
tp3891
(g555
g556
tp3892
g151
g136
tp3893
F-2435.5836017261963
s((I1
S'13'
p3894
tp3895
(g28
g166
tp3896
g32
g32
tp3897
F-1027.4243655019973
s((I1
g149
tp3898
(g567
g1590
tp3899
g136
g136
tp3900
F5041.746772483463
s((I0
g149
tp3901
(g594
g134
tp3902
g136
g136
tp3903
F-1383.9055773490684
s((I1
g23
tp3904
(g196
g214
tp3905
g7
g6
tp3906
F1215.7806746428744
s((I1
g9
tp3907
(S'blocked 4'
p3908
g4
tp3909
g7
g6
tp3910
F-895.7915003467766
s((I1
g9
tp3911
(g200
S'11'
p3912
tp3913
g7
g7
tp3914
F-901.8987613523653
s((I0
g70
tp3915
(g87
S'11'
p3916
tp3917
g32
g31
tp3918
F-709.743495770198
s((I0
g166
tp3919
(g40
S'11'
p3920
tp3921
g31
g31
tp3922
F-339.9215601350852
s((I1
g422
tp3923
(g368
g91
tp3924
g96
g97
tp3925
F3572.7141587334727
s((I1
g9
tp3926
(g640
S'13'
p3927
tp3928
g6
g7
tp3929
F427.13437656703996
s((I0
g70
tp3930
(g87
g29
tp3931
g32
g32
tp3932
F-299.720818609212
s((I1
g94
tp3933
(g368
g91
tp3934
g96
g96
tp3935
F-7303.918140320019
s((I1
S'16'
p3936
tp3937
(g196
g243
tp3938
g6
g6
tp3939
F446.43893770637175
s((I1
g9
tp3940
(g3035
g214
tp3941
g6
g6
tp3942
F13451.874626567565
s((I0
g9
tp3943
(g328
S'16'
p3944
tp3945
g6
g7
tp3946
F-503.84169082661157
s((I0
g68
tp3947
(g40
g29
tp3948
g31
g32
tp3949
F-623.9149060278035
s((I1
g9
tp3950
(g11
g243
tp3951
g7
g7
tp3952
F6654.714151808349
s((I0
g70
tp3953
(g87
g29
tp3954
g31
g32
tp3955
F-3316.776738182809
s((I0
g131
tp3956
(g555
g131
tp3957
g136
g136
tp3958
F87844.57701017181
s((I0
g320
tp3959
(g74
S'15'
p3960
tp3961
g6
g7
tp3962
F772.4227040045804
s(g460
I5
I01
I00
tp3963
F2430.690092706028
s(g196
I14
I01
I01
tp3964
F-345.58396071456093
s((I0
g166
tp3965
(g40
g85
tp3966
g32
g32
tp3967
F1034.8122867300622
s((I0
g4
tp3968
(g886
g15
tp3969
g7
g6
tp3970
F13514.62945780213
s((I0
S'11'
p3971
tp3972
(g74
S'14'
p3973
tp3974
g7
g7
tp3975
F332.8763720660094
s((I1
g85
tp3976
(g376
S'11'
p3977
tp3978
g32
g32
tp3979
F-807.364796021682
s((I0
g4
tp3980
(g886
g20
tp3981
g6
g7
tp3982
F-16490.194614084412
s((I0
g68
tp3983
(g40
S'13'
p3984
tp3985
g32
g31
tp3986
F780.5635232838821
s((I0
g214
tp3987
(g213
g214
tp3988
g6
g7
tp3989
F2332.5998383177753
s((I1
g268
tp3990
(g3143
g492
tp3991
g54
g54
tp3992
F-7220.967260527067
s((I1
g1
tp3993
(g57
g214
tp3994
g7
g6
tp3995
F-1305.039184692198
s((I1
g693
tp3996
(g309
g3519
tp3997
g313
g313
tp3998
F2188.06937876679
s((I1
g23
tp3999
(g196
g9
tp4000
g6
g6
tp4001
F-673.3117156150888
s((I1
g9
tp4002
(g22
g23
tp4003
g6
g7
tp4004
F-2073.5203149060044
s((I1
g91
tp4005
(g1034
g91
tp4006
g97
g96
tp4007
F14647.054030968764
s((I1
g20
tp4008
(g45
g214
tp4009
g7
g6
tp4010
F9200.813650664073
s((I1
g9
tp4011
(g3497
g15
tp4012
g6
g6
tp4013
F14220.871279683917
s((I0
g257
tp4014
(g108
g257
tp4015
g96
g96
tp4016
F3371.259673552858
s((I0
g85
tp4017
(g87
g166
tp4018
g31
g32
tp4019
F-1641.147357762068
s((I1
g9
tp4020
(g3908
g4
tp4021
g6
g7
tp4022
F-45.99002778749821
s((I0
g131
tp4023
(g1785
g146
tp4024
g151
g136
tp4025
F-256.06209114335786
s((I0
g9
tp4026
(g328
S'16'
p4027
tp4028
g7
g7
tp4029
F111.28523662808524
s((I0
g85
tp4030
(g87
g29
tp4031
g32
g31
tp4032
F-296.49206599289164
s((I0
g9
tp4033
(g547
g23
tp4034
g6
g7
tp4035
F-165.0239166132071
s((I0
g131
tp4036
(g1306
g556
tp4037
g151
g151
tp4038
F9193.42717547778
s(g580
I1
I00
I01
tp4039
F-3655.214972499356
s((I1
g15
tp4040
(g756
g9
tp4041
g7
g7
tp4042
F31200.662079410708
s((I1
g174
tp4043
(g148
g280
tp4044
g151
g151
tp4045
F-661.3291700653498
s((I1
g693
tp4046
(g2761
g307
tp4047
g313
g312
tp4048
F102.3557160497412
s((I1
S'11'
p4049
tp4050
(g28
g166
tp4051
g31
g32
tp4052
F934.7173183747407
s((I1
S'12'
p4053
tp4054
(g28
g68
tp4055
g32
g32
tp4056
F743.0599016028821
s((I0
g214
tp4057
(g213
g9
tp4058
g6
g6
tp4059
F-293.6379866016922
s((I0
g243
tp4060
(g193
g1
tp4061
g7
g6
tp4062
F134.2330634046706
s((I0
g91
tp4063
(g711
g422
tp4064
g97
g96
tp4065
F-15799.46163567854
s((I0
g214
tp4066
(g213
S'10'
p4067
tp4068
g6
g7
tp4069
F409.2444143253633
s(g756
I4
I00
I01
tp4070
F-18515.22209125033
s((I0
g131
tp4071
(g555
g149
tp4072
g151
g151
tp4073
F-34426.13552722001
s((I1
g91
tp4074
(g929
g91
tp4075
g97
g96
tp4076
F8532.336708424662
s((I1
g166
tp4077
(g376
S'13'
p4078
tp4079
g32
g31
tp4080
F-45.23806895205586
s((I0
g257
tp4081
(g108
g257
tp4082
g97
g97
tp4083
F1097.8833195862571
s((I0
S'11'
p4084
tp4085
(g74
S'13'
p4086
tp4087
g7
g7
tp4088
F732.7746650030667
s((I1
S'10'
p4089
tp4090
(g28
g178
tp4091
g32
g32
tp4092
F1078.4964663903195
s((I1
g268
tp4093
(g1340
g873
tp4094
g53
g53
tp4095
F4568.997905591925
s(g295
I2
I00
I00
tp4096
F-23659.128098368456
s((I0
g243
tp4097
(g193
g15
tp4098
g7
g6
tp4099
F18113.72619009372
s((I1
g85
tp4100
(g427
g70
tp4101
g32
g31
tp4102
F4086.245449163696
s((I1
g214
tp4103
(g57
g9
tp4104
g6
g7
tp4105
F-18938.679912859065
s((I1
g307
tp4106
(g3287
g696
tp4107
g312
g312
tp4108
F-487.12247281752616
s((I0
g257
tp4109
(g295
g257
tp4110
g97
g97
tp4111
F-14542.48664686719
s(g368
I4
I01
I01
tp4112
F2199.722243717849
s((I1
g15
tp4113
(g286
S'10'
p4114
tp4115
g6
g7
tp4116
F112.53038123858289
s((I1
g9
tp4117
(g2226
g320
tp4118
g6
g7
tp4119
F567.7944726697384
s(g756
I3
I00
I00
tp4120
F-21689.513543242312
s((I1
g268
tp4121
(g270
g51
tp4122
g53
g54
tp4123
F1150.3296262656968
s((I1
S'13'
p4124
tp4125
(g196
g214
tp4126
g7
g6
tp4127
F80.63022793815954
s((I1
g268
tp4128
(g1340
g48
tp4129
g54
g53
tp4130
F-33633.83011097406
s((I0
S'10'
p4131
tp4132
(g193
g15
tp4133
g7
g6
tp4134
F1447.9550922148965
s(g3192
I1
I01
I01
tp4135
F32757.416384210173
s((I1
g91
tp4136
(g1193
g91
tp4137
g96
g97
tp4138
F-30981.68621350639
s((I1
g94
tp4139
(g368
g257
tp4140
g96
g96
tp4141
F3706.5607337988663
s((I1
S'14'
p4142
tp4143
(g196
g320
tp4144
g7
g7
tp4145
F-10.34413229573501
s((I1
g693
tp4146
(g309
g3519
tp4147
g312
g312
tp4148
F-194.40478356945187
s((I0
g70
tp4149
(g40
g68
tp4150
g32
g32
tp4151
F4029.060658060611
s((I1
g70
tp4152
(g952
g29
tp4153
g31
g32
tp4154
F415.4153791836565
s((I1
g166
tp4155
(g376
g68
tp4156
g32
g31
tp4157
F-23.777377417034568
s((I1
g20
tp4158
(g290
g15
tp4159
g6
g7
tp4160
F-30767.487410834125
s((I0
g91
tp4161
(g711
g422
tp4162
g96
g97
tp4163
F3927.506586787465
s((I1
g91
tp4164
(g3192
g94
tp4165
g96
g96
tp4166
F5702.02059662745
s((I0
g4
tp4167
(g213
g1
tp4168
g6
g6
tp4169
F-456.17341244565404
s((I1
g1
tp4170
(g57
S'10'
p4171
tp4172
g7
g6
tp4173
F9.48370443241643
s((I0
g166
tp4174
(g100
g178
tp4175
g31
g32
tp4176
F-1500.6344342814982
s((I1
g1
tp4177
(g756
g1
tp4178
g6
g6
tp4179
F-2280.389650078423
s((I0
g15
tp4180
(g1376
g20
tp4181
g6
g7
tp4182
F-4402.876516553769
s((I1
g214
tp4183
(g460
g4
tp4184
g7
g7
tp4185
F2900.1674755461545
s((I1
g15
tp4186
(g286
g214
tp4187
g7
g7
tp4188
F9714.097129618407
s((I1
g9
tp4189
(S'open 3'
p4190
g320
tp4191
g7
g6
tp4192
F492.6556234471718
s((I0
g166
tp4193
(g40
S'11'
p4194
tp4195
g32
g31
tp4196
F-692.1264683590801
s((I1
g320
tp4197
(g196
g214
tp4198
g7
g6
tp4199
F49.90119722636473
s((I0
g243
tp4200
(g193
g214
tp4201
g6
g7
tp4202
F812.7157556987473
s((I1
S'15'
p4203
tp4204
(g196
g9
tp4205
g6
g6
tp4206
F-993.276396337714
s((I1
g174
tp4207
(g148
g131
tp4208
g136
g136
tp4209
F17881.171567841247
s((I1
g91
tp4210
(g2357
g257
tp4211
g97
g96
tp4212
F26219.745100230564
s((I1
g9
tp4213
(g337
g243
tp4214
g6
g7
tp4215
F2779.121197281882
s((I0
g91
tp4216
(g862
g91
tp4217
g97
g96
tp4218
F-18327.93708807247
s((I1
g9
tp4219
(g1711
g4
tp4220
g7
g7
tp4221
F3627.0012319859134
s((I0
g70
tp4222
(g2614
g85
tp4223
g32
g31
tp4224
F3146.5917116195897
s((I1
g91
tp4225
(g1136
g94
tp4226
g96
g96
tp4227
F1477.9942786244742
s((I0
g9
tp4228
(g328
S'12'
p4229
tp4230
g7
g7
tp4231
F-256.68159759030215
s((I1
S'11'
p4232
tp4233
(g28
g265
tp4234
g32
g32
tp4235
F543.38184957147
s((I0
g9
tp4236
(g328
g23
tp4237
g7
g6
tp4238
F147.39001379084954
s((I0
g1
tp4239
(g74
S'11'
p4240
tp4241
g6
g6
tp4242
F-1093.155805420841
s((I1
g1516
tp4243
(g1518
g559
tp4244
g2155
g2155
tp4245
F358.6449441201312
s((I1
g91
tp4246
(g1091
g422
tp4247
g97
g97
tp4248
F6188.246357320794
s((I1
g257
tp4249
(g2357
g91
tp4250
g97
g96
tp4251
F36928.41115638728
s((I1
S'10'
p4252
tp4253
(g28
g29
tp4254
g31
g31
tp4255
F820.4778832931648
s((I0
g153
tp4256
(g674
S'11'
p4257
tp4258
g32
g31
tp4259
F-407.52997002066036
s((I1
g20
tp4260
(g505
S'15'
p4261
tp4262
g6
g6
tp4263
F-986.3972580481261
s((I0
g9
tp4264
(S'blocked 4'
p4265
g1
tp4266
g7
g6
tp4267
F618.867909073228
s((I0
S'10'
p4268
tp4269
(g193
g1
tp4270
g6
g6
tp4271
F10.415274943540474
s((I1
g307
tp4272
(g309
g693
tp4273
g313
g313
tp4274
F-16441.83936603453
s(g196
I9
I01
I01
tp4275
F1586.3042087745457
s((I1
g1
tp4276
(g756
g20
tp4277
g7
g7
tp4278
F885.7807412174107
s((I0
g412
tp4279
(S'blocked 2'
p4280
g556
tp4281
g151
g151
tp4282
F-3132.7590411162314
s((I1
g15
tp4283
(g286
S'10'
p4284
tp4285
g7
g6
tp4286
F67.84616612257082
s((I1
g20
tp4287
(g505
S'11'
p4288
tp4289
g6
g6
tp4290
F-2462.0176899188714
s((I1
g452
tp4291
(g1037
g904
tp4292
g302
g607
tp4293
F5147.006610655279
s((I0
S'11'
p4294
tp4295
(g74
g20
tp4296
g6
g7
tp4297
F-564.4978653888346
s((I1
g20
tp4298
(g184
g320
tp4299
g7
g7
tp4300
F176.18828321267247
s(g756
I5
I00
I00
tp4301
F-6705.16017912083
s((I1
g9
tp4302
(g1380
g23
tp4303
g7
g7
tp4304
F-178.96917868093328
s((I0
g1
tp4305
(g213
g20
tp4306
g6
g6
tp4307
F-6303.110316208447
s((I1
g9
tp4308
(g17
g214
tp4309
g6
g7
tp4310
F-11824.410483455888
s((I1
g91
tp4311
(S'open 3'
p4312
g94
tp4313
g96
g97
tp4314
F3855.73577125944
s((I0
g38
tp4315
(g40
S'10'
p4316
tp4317
g31
g31
tp4318
F470.1063477635887
s((I1
S'3'
p4319
tp4320
(S'open 3'
p4321
S'4'
p4322
tp4323
S'True'
p4324
g4324
tp4325
F6683.0473077700935
s((I1
g91
tp4326
(g1405
g257
tp4327
g96
g96
tp4328
F11303.614441499054
s((I0
g1
tp4329
(g74
S'11'
p4330
tp4331
g7
g7
tp4332
F969.5821547676105
s((I1
g1
tp4333
(g361
g15
tp4334
g6
g6
tp4335
F-4651.380433591266
s((I1
S'12'
p4336
tp4337
(g196
g214
tp4338
g7
g7
tp4339
F166.3044275222511
s(g196
I12
I00
I01
tp4340
F-94.54418843479331
s((I1
g20
tp4341
(g45
g1
tp4342
g6
g7
tp4343
F1493.9927489323577
s((I0
g9
tp4344
(g575
S'15'
p4345
tp4346
g6
g7
tp4347
F1326.5315532396414
s((I0
g85
tp4348
(g1072
g29
tp4349
g32
g32
tp4350
F95.45082185607413
s((I1
g15
tp4351
(g105
g9
tp4352
g7
g6
tp4353
F35972.289913542045
s(g196
I14
I01
I00
tp4354
F1806.6395502643052
s((I0
g23
tp4355
(g74
g9
tp4356
g6
g7
tp4357
F408.55872804224487
s((I0
S'13'
p4358
tp4359
(g74
S'12'
p4360
tp4361
g7
g7
tp4362
F-210.99493197267017
s((I1
g9
tp4363
(g401
g243
tp4364
g7
g7
tp4365
F182.94154767339353
s((I1
S'13'
p4366
tp4367
(g28
g38
tp4368
g31
g31
tp4369
F248.36349700139067
s((I0
g243
tp4370
(g193
g20
tp4371
g6
g6
tp4372
F118.62606607524548
s((I1
g9
tp4373
(g286
S'10'
p4374
tp4375
g6
g7
tp4376
F-664.8157247111742
s((I0
g268
tp4377
(g50
g51
tp4378
g54
g53
tp4379
F9562.919691837657
s((I0
g85
tp4380
(g87
g85
tp4381
g32
g31
tp4382
F-81.66071465798518
s((I0
g20
tp4383
(g61
g15
tp4384
g6
g6
tp4385
F-18568.72253999374
s((I1
S'10'
p4386
tp4387
(g28
g178
tp4388
g31
g31
tp4389
F-1075.5410379050627
s((I1
g1
tp4390
(g57
g1
tp4391
g7
g7
tp4392
F-265.87633678570467
s((I0
g214
tp4393
(g213
g1
tp4394
g7
g6
tp4395
F1099.7105006135844
s((I1
g9
tp4396
(g3135
S'14'
p4397
tp4398
g6
g6
tp4399
F304.235910047209
s((I1
S'10'
p4400
tp4401
(g28
g68
tp4402
g31
g31
tp4403
F-896.0728468835133
s((I0
S'15'
p4404
tp4405
(g74
S'11'
p4406
tp4407
g7
g6
tp4408
F-2023.804043128529
s((I1
S'16'
p4409
tp4410
(g196
g20
tp4411
g6
g7
tp4412
F-395.9784524221825
s((I1
S'14'
p4413
tp4414
(g196
g243
tp4415
g7
g7
tp4416
F-425.97607447335446
s((I0
g85
tp4417
(g40
g265
tp4418
g31
g31
tp4419
F-79.38719646727233
s((I0
g149
tp4420
(g594
g174
tp4421
g151
g136
tp4422
F2268.5836063687116
s((I1
g9
tp4423
(g286
S'10'
p4424
tp4425
g7
g6
tp4426
F758.5043979909506
s(g196
I16
I01
I00
tp4427
F175.73718596719607
s((I1
g257
tp4428
(g2357
g91
tp4429
g96
g96
tp4430
F-12145.003510672794
s((I0
g1
tp4431
(g74
g23
tp4432
g7
g7
tp4433
F672.0172087520461
s(g196
I13
I01
I00
tp4434
F1220.6619268346706
s((I1
g1
tp4435
(g3
g4
tp4436
g7
g7
tp4437
F1137.8423076181705
s((I0
g178
tp4438
(g100
S'10'
p4439
tp4440
g31
g32
tp4441
F792.0187721914939
s(g196
I15
I00
I01
tp4442
F2820.5873236536236
s((I1
g91
tp4443
(g3192
g91
tp4444
g96
g96
tp4445
F31570.050727003723
s((I1
g91
tp4446
(g1136
g94
tp4447
g97
g96
tp4448
F9480.335460938295
s((I1
g131
tp4449
(g2135
g134
tp4450
g136
g136
tp4451
F-933.5146328662638
s((I0
S'13'
p4452
tp4453
(g74
S'12'
p4454
tp4455
g6
g6
tp4456
F322.1833239253086
s((I1
g20
tp4457
(g813
g4
tp4458
g6
g6
tp4459
F371.39886313130745
s((I0
g605
tp4460
(g1889
g452
tp4461
g302
g302
tp4462
F-2791.8733551410714
s((I0
S'10'
p4463
tp4464
(g193
g20
tp4465
g6
g6
tp4466
F2724.7375128634967
s((I1
g9
tp4467
(g1711
g4
tp4468
g6
g6
tp4469
F10280.24204838674
s((I0
g298
tp4470
(g300
g452
tp4471
g607
g302
tp4472
F576.0824969545984
s((I0
g280
tp4473
(g282
g174
tp4474
g151
g136
tp4475
F1258.5305311562936
s((I1
g20
tp4476
(g184
S'14'
p4477
tp4478
g6
g6
tp4479
F49.17975731367863
s(g196
I11
I00
I00
tp4480
F-6032.209269920124
s((I1
g1
tp4481
(g351
g15
tp4482
g6
g7
tp4483
F-2105.7339453254854
s((I1
g214
tp4484
(g57
g20
tp4485
g7
g6
tp4486
F-3369.7806904694817
s((I0
g4
tp4487
(g74
S'13'
p4488
tp4489
g7
g7
tp4490
F-381.9173801357489
s((I0
g9
tp4491
(g575
S'12'
p4492
tp4493
g6
g7
tp4494
F-2216.927970576167
s((I1
S'13'
p4495
tp4496
(g196
g9
tp4497
g6
g6
tp4498
F-1476.1025967939538
s((I0
g265
tp4499
(g100
S'10'
p4500
tp4501
g32
g31
tp4502
F28.105476838710754
s((I0
g1
tp4503
(g74
g23
tp4504
g6
g6
tp4505
F-909.0981301080726
s((I0
g243
tp4506
(g74
g9
tp4507
g7
g6
tp4508
F2397.3659199479603
s((I1
g15
tp4509
(g105
g9
tp4510
g6
g6
tp4511
F-4530.395974598941
s((I1
g48
tp4512
(g510
g51
tp4513
g53
g53
tp4514
F-10515.733387198889
s((I0
g9
tp4515
(g189
S'11'
p4516
tp4517
g7
g6
tp4518
F-2064.298508424926
s((I1
g15
tp4519
(S'blocked 2'
p4520
g1
tp4521
g6
g7
tp4522
F-15737.00133132295
s((I1
S'12'
p4523
tp4524
(g196
S'13'
p4525
tp4526
g7
g6
tp4527
F543.3716187876499
s((I0
g85
tp4528
(g87
S'10'
p4529
tp4530
g32
g32
tp4531
F601.1230988553771
s((I1
g20
tp4532
(g184
g320
tp4533
g6
g6
tp4534
F-107.67624928740588
s((I1
g85
tp4535
(g376
g265
tp4536
g31
g32
tp4537
F130.0877799236078
s((I0
g68
tp4538
(g100
S'10'
p4539
tp4540
g31
g32
tp4541
F783.6343064412953
s((I0
g70
tp4542
(g2614
g70
tp4543
g31
g31
tp4544
F-12899.854158221033
s((I0
g153
tp4545
(g3317
g166
tp4546
g32
g31
tp4547
F14396.06577914244
s((I0
g91
tp4548
(S'blocked 2'
p4549
g257
tp4550
g97
g97
tp4551
F-2270.005207116662
s((I1
g68
tp4552
(g1448
g166
tp4553
g31
g32
tp4554
F-179.86865400689743
s((I1
g257
tp4555
(g1114
g94
tp4556
g96
g96
tp4557
F-34971.11692160241
s((I0
S'11'
p4558
tp4559
(g74
g9
tp4560
g6
g7
tp4561
F-56.725899162557596
s((I0
g1590
tp4562
(g282
g146
tp4563
g151
g136
tp4564
F3226.7179343894154
s((I0
g265
tp4565
(g100
S'11'
p4566
tp4567
g32
g32
tp4568
F504.03053589202176
s((I1
g9
tp4569
(g3135
g23
tp4570
g6
g6
tp4571
F-0.37790266811998663
s((I0
g298
tp4572
(g300
g452
tp4573
g302
g607
tp4574
F-988.4208900763028
s((I1
S'13'
p4575
tp4576
(g28
g29
tp4577
g32
g31
tp4578
F-355.60567621439765
s((I1
g1
tp4579
(g351
g1
tp4580
g7
g6
tp4581
F-588.8974324222069
s((I0
g70
tp4582
(g87
g166
tp4583
g31
g32
tp4584
F281.3249084859813
s((I0
g70
tp4585
(g87
S'11'
p4586
tp4587
g31
g32
tp4588
F1180.261534424957
s(g309
I4
I00
I01
tp4589
F-2781.4269415374056
s((I0
g15
tp4590
(g213
g15
tp4591
g7
g7
tp4592
F-20183.589247768305
s((I1
g15
tp4593
(g756
g1
tp4594
g7
g7
tp4595
F3825.2072525852527
s((I1
g2701
tp4596
(g2703
S'11'
p4597
tp4598
g1025
g1025
tp4599
F-5.8609091389167585
s((I0
g214
tp4600
(g1376
g214
tp4601
g7
g6
tp4602
F-2045.2467166008155
s((I0
g23
tp4603
(g193
g20
tp4604
g6
g7
tp4605
F1160.405677148245
s((I1
g9
tp4606
(g505
S'10'
p4607
tp4608
g6
g7
tp4609
F-696.9494966546685
s((I0
g70
tp4610
(g87
g68
tp4611
g32
g32
tp4612
F1672.7312455715114
s((I1
g9
tp4613
(g200
S'11'
p4614
tp4615
g6
g6
tp4616
F740.4410402822386
s(g1340
I2
I01
I00
tp4617
F46945.06263582814
s((I1
g1
tp4618
(g57
g243
tp4619
g6
g6
tp4620
F146.89992109873174
s((I1
g15
tp4621
(g756
g20
tp4622
g6
g7
tp4623
F-2505.8059146801343
s((I0
g9
tp4624
(g228
S'14'
p4625
tp4626
g6
g6
tp4627
F1059.0781732904543
s((I1
g20
tp4628
(g65
g20
tp4629
g7
g6
tp4630
F36635.55948554474
s((I1
g298
tp4631
(g906
g1781
tp4632
g302
g607
tp4633
F-315.5221897482248
s((I0
g153
tp4634
(g3201
g70
tp4635
g31
g32
tp4636
F25517.28538021644
s((I1
g91
tp4637
(g1034
g91
tp4638
g97
g97
tp4639
F6460.457605753776
s((I1
g29
tp4640
(g28
g85
tp4641
g31
g31
tp4642
F2015.5106066836033
s((I0
g9
tp4643
(g328
S'11'
p4644
tp4645
g7
g7
tp4646
F2452.3341102419517
s((I1
g9
tp4647
(g205
g1
tp4648
g7
g7
tp4649
F7816.689612623477
s((I0
g257
tp4650
(g108
g91
tp4651
g97
g96
tp4652
F-44648.255312337984
s((I0
g605
tp4653
(g1889
g298
tp4654
g302
g302
tp4655
F1545.1486745553216
s((I0
g1
tp4656
(g213
g320
tp4657
g7
g7
tp4658
F950.1218960097951
s((I1
g131
tp4659
(g764
g146
tp4660
g136
g136
tp4661
F-1514.0709320828223
s((I0
g48
tp4662
(S'blocked 2'
p4663
g492
tp4664
g54
g53
tp4665
F1165.8514378297107
s((I1
g174
tp4666
(g148
g412
tp4667
g151
g136
tp4668
F67.00198374822003
s((I1
g91
tp4669
(g254
g257
tp4670
g97
g96
tp4671
F-25312.91558877196
s((I0
g51
tp4672
(g139
g268
tp4673
g54
g53
tp4674
F16274.379390155478
s((I0
g23
tp4675
(g193
g20
tp4676
g7
g6
tp4677
F-1632.174283692307
s((I1
g15
tp4678
(g3
g1
tp4679
g6
g7
tp4680
F-6746.523295688818
s(g2496
I1
I00
I00
tp4681
F-67445.32121298791
s((I0
g23
tp4682
(g74
S'14'
p4683
tp4684
g7
g6
tp4685
F220.86092711234568
s((I1
g15
tp4686
(g756
g20
tp4687
g7
g6
tp4688
F-450.03895841121914
s((I0
g85
tp4689
(g1461
g178
tp4690
g32
g31
tp4691
F-1525.567766963274
s((I0
g265
tp4692
(g100
g166
tp4693
g32
g32
tp4694
F208.08919822647795
s((I0
g9
tp4695
(g328
S'15'
p4696
tp4697
g7
g7
tp4698
F533.8095512390373
s((I0
g68
tp4699
(g40
g29
tp4700
g32
g32
tp4701
F429.9229762533861
s(g1513
I3
I00
I01
tp4702
F-15500.056121801183
s((I0
g38
tp4703
(g40
g265
tp4704
g32
g31
tp4705
F365.3354623018892
s((I1
g559
tp4706
(g2618
g1619
tp4707
g2155
g2155
tp4708
F-1820.3863435491294
s((I0
g91
tp4709
(g295
g257
tp4710
g97
g96
tp4711
F6216.129666879475
s((I0
g412
tp4712
(g282
g174
tp4713
g151
g136
tp4714
F4244.985662671103
s((I0
g9
tp4715
(g575
S'12'
p4716
tp4717
g7
g6
tp4718
F1666.258233348361
s((I0
g605
tp4719
(g1889
g1547
tp4720
g607
g607
tp4721
F1026.4645576394187
s((I0
g70
tp4722
(g1461
g178
tp4723
g32
g31
tp4724
F2792.913901339077
s((I1
S'14'
p4725
tp4726
(g196
g4
tp4727
g7
g6
tp4728
F217.91463733941833
s((I1
S'13'
p4729
tp4730
(g28
g265
tp4731
g31
g31
tp4732
F289.82069381862607
s((I1
g4319
tp4733
(g4321
g4322
tp4734
S'False'
p4735
g4735
tp4736
F-4852.667454251151
s((I0
g298
tp4737
(g300
g1547
tp4738
g302
g607
tp4739
F-4689.901693167232
s((I0
S'13'
p4740
tp4741
(g74
g9
tp4742
g6
g7
tp4743
F-607.5977813732154
s((I1
g1058
tp4744
(g1060
g1156
tp4745
g1158
g1062
tp4746
F70.13596152885543
s((I1
g9
tp4747
(g536
S'10'
p4748
tp4749
g6
g7
tp4750
F-130.23251625685197
s((I0
g265
tp4751
(g100
S'11'
p4752
tp4753
g31
g31
tp4754
F-439.65777133571055
s((I1
S'16'
p4755
tp4756
(g196
g243
tp4757
g6
g7
tp4758
F253.43808866445227
s((I1
g9
tp4759
(g536
S'11'
p4760
tp4761
g7
g6
tp4762
F-1038.8767992847158
s((I0
S'13'
p4763
tp4764
(g74
g20
tp4765
g7
g7
tp4766
F-185.1499293091237
s((I0
g29
tp4767
(g100
g166
tp4768
g32
g32
tp4769
F118.33666873775958
s((I0
S'2'
p4770
tp4771
(S'open 3'
p4772
g4770
tp4773
S'False'
p4774
g4774
tp4775
F-820.254203592601
s((I0
g1027
tp4776
(g1029
g1030
tp4777
g2104
g2104
tp4778
F3509.9046991058394
s((I0
g91
tp4779
(g580
g91
tp4780
g96
g96
tp4781
F34153.81253105851
s((I0
g85
tp4782
(g1072
S'10'
p4783
tp4784
g31
g31
tp4785
F812.7044430849352
s((I0
S'10'
p4786
tp4787
(g74
S'13'
p4788
tp4789
g7
g7
tp4790
F-276.45892606920825
s((I0
g70
tp4791
(g87
g38
tp4792
g31
g32
tp4793
F-1620.6480109811441
s((I0
g320
tp4794
(g74
S'15'
p4795
tp4796
g6
g6
tp4797
F-70.29738532921161
s((I0
g320
tp4798
(g193
g9
tp4799
g7
g7
tp4800
F574.1276219928595
s((I0
g85
tp4801
(g1072
g29
tp4802
g31
g31
tp4803
F-153.43480012687735
s(g213
I5
I00
I00
tp4804
F-7236.083115751683
s((I0
g9
tp4805
(g328
g23
tp4806
g6
g6
tp4807
F135.01094397453818
s((I1
g48
tp4808
(g3747
g268
tp4809
g53
g53
tp4810
F-24615.448309232237
s((I0
g91
tp4811
(g1649
g94
tp4812
g96
g97
tp4813
F21577.28294137247
s((I1
g214
tp4814
(g3
g9
tp4815
g6
g6
tp4816
F-6215.101905225658
s((I0
g9
tp4817
(g2848
g243
tp4818
g6
g7
tp4819
F-767.9535975527228
s((I1
g38
tp4820
(g376
g29
tp4821
g32
g31
tp4822
F-495.90419262829073
s((I0
S'11'
p4823
tp4824
(g74
S'14'
p4825
tp4826
g6
g7
tp4827
F-454.52378853367486
s((I1
S'11'
p4828
tp4829
(g196
g1
tp4830
g6
g7
tp4831
F1166.2051733139074
s((I0
g131
tp4832
(g1103
g556
tp4833
g151
g151
tp4834
F4636.371015912314
s((I1
S'14'
p4835
tp4836
(g196
g23
tp4837
g7
g6
tp4838
F303.36699565712644
s((I1
S'12'
p4839
tp4840
(g28
g38
tp4841
g32
g32
tp4842
F1093.01944910433
s((I1
g48
tp4843
(S'blocked 4'
p4844
g268
tp4845
g54
g53
tp4846
F-7027.505531188669
s((I1
g15
tp4847
(g105
g9
tp4848
g6
g7
tp4849
F-47767.39912274031
s((I1
g243
tp4850
(g196
g1
tp4851
g6
g7
tp4852
F1997.6429660316626
s((I0
g48
tp4853
(g1224
g873
tp4854
g54
g54
tp4855
F3260.75362275643
s((I1
g134
tp4856
(g148
g131
tp4857
g151
g151
tp4858
F-2019.5211515143837
s((I1
S'13'
p4859
tp4860
(g196
S'11'
p4861
tp4862
g6
g7
tp4863
F381.2660011128586
s((I1
g1
tp4864
(g351
g1
tp4865
g6
g7
tp4866
F-20.679052747693788
s((I1
S'11'
p4867
tp4868
(g196
S'15'
p4869
tp4870
g7
g7
tp4871
F1839.0298047103613
s((I0
g492
tp4872
(g494
g268
tp4873
g54
g53
tp4874
F-501.3225802553335
s((I0
g153
tp4875
(g1530
g68
tp4876
g32
g31
tp4877
F607.138088735845
s((I1
g48
tp4878
(S'open 4'
p4879
g51
tp4880
g54
g53
tp4881
F-600.6235129211295
s((I0
g85
tp4882
(g87
g166
tp4883
g31
g31
tp4884
F431.35839642446683
s((I0
g70
tp4885
(g87
S'10'
p4886
tp4887
g31
g32
tp4888
F-208.36481635538388
s((I1
g20
tp4889
(g290
S'10'
p4890
tp4891
g6
g7
tp4892
F-817.3409195521835
s((I1
g20
tp4893
(g290
g214
tp4894
g7
g6
tp4895
F7228.413617693292
s((I0
g20
tp4896
(g328
S'11'
p4897
tp4898
g7
g6
tp4899
F5.03187872689994
s((I1
g1058
tp4900
(g1060
g1156
tp4901
g1062
g1158
tp4902
F251.62700297682386
s((I0
g605
tp4903
(g1889
g1781
tp4904
g607
g302
tp4905
F4121.923537049915
s((I1
g1
tp4906
(g351
g20
tp4907
g7
g7
tp4908
F147.13943456018148
s((I0
g3383
tp4909
(g3385
g865
tp4910
g871
g870
tp4911
F22507.311643540204
s((I1
g166
tp4912
(g376
g29
tp4913
g32
g32
tp4914
F-816.03412861477
s((I0
g91
tp4915
(g984
g91
tp4916
g97
g97
tp4917
F-38092.78862567468
s((I0
S'10'
p4918
tp4919
(g193
g15
tp4920
g7
g7
tp4921
F-1584.0730276514382
s((I1
g15
tp4922
(g3
g214
tp4923
g7
g6
tp4924
F-558.6682885627222
s((I1
g91
tp4925
(g929
g91
tp4926
g97
g97
tp4927
F-7760.295873432792
s((I1
g412
tp4928
(g1854
g174
tp4929
g136
g151
tp4930
F724.7436347294745
s((I0
g134
tp4931
(g594
g174
tp4932
g151
g136
tp4933
F982.5138631276338
s((I1
g91
tp4934
(g1091
g91
tp4935
g97
g96
tp4936
F20079.303634588392
s((I1
g20
tp4937
(g290
S'10'
p4938
tp4939
g7
g7
tp4940
F1519.4309245881484
s((I1
g1
tp4941
(g57
g23
tp4942
g6
g6
tp4943
F-450.001013218481
s((I0
g873
tp4944
(g494
g268
tp4945
g54
g54
tp4946
F93.51252323807233
s((I0
g1547
tp4947
(g1780
g452
tp4948
g302
g302
tp4949
F468.9081292346103
s((I1
S'12'
p4950
tp4951
(g196
S'13'
p4952
tp4953
g7
g7
tp4954
F-739.1607360284892
s((I0
g85
tp4955
(g2026
g178
tp4956
g31
g32
tp4957
F-839.1631242730191
s((I0
g131
tp4958
(g1704
g174
tp4959
g136
g151
tp4960
F30634.1442267088
s((I1
g91
tp4961
(g929
g91
tp4962
g96
g97
tp4963
F-16789.052120907716
s((I1
S'11'
p4964
tp4965
(g196
g20
tp4966
g7
g6
tp4967
F-228.09155824107768
s((I0
g9
tp4968
(g328
S'14'
p4969
tp4970
g6
g6
tp4971
F1903.8322060810083
s((I1
g214
tp4972
(g756
g1
tp4973
g7
g7
tp4974
F2914.3497881472763
s((I0
g131
tp4975
(g1366
g174
tp4976
g136
g151
tp4977
F-696.7850215337467
s((I0
g9
tp4978
(g4265
g1
tp4979
g6
g7
tp4980
F-200.00944102645101
s((I1
g9
tp4981
(g640
S'13'
p4982
tp4983
g6
g6
tp4984
F-70.55201879999734
s((I1
g9
tp4985
(g1242
g214
tp4986
g7
g6
tp4987
F2785.1303048714926
s((I0
S'10'
p4988
tp4989
(g74
S'14'
p4990
tp4991
g6
g6
tp4992
F597.787201524915
s((I1
g29
tp4993
(g28
g68
tp4994
g32
g32
tp4995
F-923.3306692356792
s((I1
g85
tp4996
(g376
S'12'
p4997
tp4998
g32
g31
tp4999
F153.7956339310431
s((I0
g166
tp5000
(g40
g265
tp5001
g32
g32
tp5002
F73.21506292141598
s((I1
S'14'
p5003
tp5004
(g196
g20
tp5005
g7
g6
tp5006
F-87.82488065692618
s((I0
g9
tp5007
(g890
g4
tp5008
g7
g6
tp5009
F-3522.0579570926466
s((I0
g15
tp5010
(g213
g1
tp5011
g7
g7
tp5012
F-13030.394059995882
s((I1
g1
tp5013
(g756
g9
tp5014
g6
g6
tp5015
F2302.966597921825
s((I0
g153
tp5016
(S'open 3'
p5017
g68
tp5018
g32
g32
tp5019
F8574.68813872506
s((I1
g91
tp5020
(g1034
g91
tp5021
g96
g96
tp5022
F-12670.183357207303
s((I0
g9
tp5023
(g328
g243
tp5024
g7
g7
tp5025
F1280.1063924124435
s((I1
g559
tp5026
(g561
g1516
tp5027
g2155
g2155
tp5028
F-5349.939058598794
s((I0
g51
tp5029
(g139
g48
tp5030
g54
g53
tp5031
F-5031.630548611113
s((I1
S'3'
p5032
tp5033
(S'open 3'
p5034
S'2'
p5035
tp5036
S'True'
p5037
g5037
tp5038
F18685.801067404132
s((I0
g85
tp5039
(g1461
g178
tp5040
g31
g32
tp5041
F27827.39187544914
s((I1
g268
tp5042
(g1340
g873
tp5043
g54
g54
tp5044
F-12293.036378348379
s((I0
g4
tp5045
(g886
g15
tp5046
g7
g7
tp5047
F-8899.710671582254
s((I1
g9
tp5048
(g505
S'12'
p5049
tp5050
g6
g6
tp5051
F3175.943818366408
s((I0
g4
tp5052
(g886
g20
tp5053
g6
g6
tp5054
F2917.3902868275313
s((I0
g9
tp5055
(g328
g320
tp5056
g6
g6
tp5057
F1187.6439542916303
s((I0
g166
tp5058
(g40
S'12'
p5059
tp5060
g32
g32
tp5061
F-510.48868765910385
s(g756
I3
I01
I01
tp5062
F16539.61583411764
s((I0
g94
tp5063
(g121
g91
tp5064
g97
g96
tp5065
F-1727.812537153369
s((I1
g9
tp5066
(g401
g243
tp5067
g6
g6
tp5068
F1534.1132416714913
s((I1
g452
tp5069
(g1037
g904
tp5070
g607
g302
tp5071
F-16.484481917740776
s((I1
g20
tp5072
(g286
g1
tp5073
g6
g7
tp5074
F-9189.294470670815
s((I1
g1
tp5075
(g57
g214
tp5076
g7
g7
tp5077
F867.8118420941825
s((I1
S'12'
p5078
tp5079
(g28
g68
tp5080
g31
g31
tp5081
F-899.0790705000999
s((I1
g23
tp5082
(g196
g9
tp5083
g6
g7
tp5084
F-1311.6956491982003
s((I1
g153
tp5085
(S'open 2'
p5086
S'12'
p5087
tp5088
g31
g32
tp5089
F-374.88915005038496
s((I1
g1
tp5090
(g57
g20
tp5091
g6
g7
tp5092
F105.800029774412
s((I0
g412
tp5093
(g4280
g280
tp5094
g136
g151
tp5095
F9509.834275354715
s((I0
g9
tp5096
(S'open 3'
p5097
g15
tp5098
g6
g7
tp5099
F14446.63061229813
s((I1
g70
tp5100
(g2843
g29
tp5101
g32
g31
tp5102
F-290.89578315285667
s((I1
g166
tp5103
(g1795
g153
tp5104
g31
g32
tp5105
F12301.711896061372
s((I0
g243
tp5106
(g74
S'16'
p5107
tp5108
g6
g6
tp5109
F79.84034285676509
s((I1
g214
tp5110
(g3
g9
tp5111
g7
g7
tp5112
F4460.738041397557
s((I0
g23
tp5113
(g193
g1
tp5114
g6
g7
tp5115
F207.4610108711836
s((I0
g91
tp5116
(g170
g422
tp5117
g97
g96
tp5118
F5640.086811323723
s((I1
g268
tp5119
(g1745
g51
tp5120
g53
g53
tp5121
F5083.109231884348
s((I1
S'10'
p5122
tp5123
(g28
g68
tp5124
g32
g31
tp5125
F-730.999781382543
s((I0
S'15'
p5126
tp5127
(g74
g9
tp5128
g6
g7
tp5129
F1090.4226772117208
s((I1
g9
tp5130
(g161
g4
tp5131
g6
g6
tp5132
F-9564.540125825231
s((I1
g15
tp5133
(g105
g20
tp5134
g7
g7
tp5135
F8015.612011036398
s((I0
g166
tp5136
(g40
g85
tp5137
g31
g31
tp5138
F-10.082430735790524
s((I1
S'14'
p5139
tp5140
(g196
g4
tp5141
g6
g7
tp5142
F-33.768354669171984
s((I0
g1
tp5143
(g886
g15
tp5144
g7
g7
tp5145
F-1685.3039474763555
s((I0
S'10'
p5146
tp5147
(g193
g15
tp5148
g6
g7
tp5149
F-450.01821545202586
s((I0
g70
tp5150
(g87
g29
tp5151
g32
g31
tp5152
F3335.2210582564694
s((I0
g70
tp5153
(g40
S'10'
p5154
tp5155
g31
g31
tp5156
F230.69301868135437
s((I0
g29
tp5157
(g100
g68
tp5158
g32
g31
tp5159
F-446.1302672546674
s((I0
g9
tp5160
(g82
g23
tp5161
g6
g7
tp5162
F1545.190372398333
s((I0
S'11'
p5163
tp5164
(g74
S'13'
p5165
tp5166
g7
g6
tp5167
F-12.658457051759058
s((I0
g68
tp5168
(g100
S'11'
p5169
tp5170
g32
g31
tp5171
F-2.4307312136628876
s((I1
g20
tp5172
(g2165
S'10'
p5173
tp5174
g6
g7
tp5175
F-1651.5620007723398
s((I0
g9
tp5176
(g189
S'13'
p5177
tp5178
g6
g7
tp5179
F-437.3893486638208
s((I0
g149
tp5180
(g4280
g556
tp5181
g151
g151
tp5182
F12714.882235290665
s((I1
g653
tp5183
(g655
g653
tp5184
g971
g971
tp5185
F9854.166617758026
s((I1
S'16'
p5186
tp5187
(g196
g243
tp5188
g7
g6
tp5189
F-40.19738518445496
s((I1
g91
tp5190
(g1114
g422
tp5191
g97
g96
tp5192
F1594.943947169896
s((I0
g257
tp5193
(g108
g91
tp5194
g96
g97
tp5195
F50100.93557069861
s((I1
g9
tp5196
(g3035
g214
tp5197
g7
g6
tp5198
F6443.456349593094
s(g213
I6
I00
I01
tp5199
F-1946.8312866350948
s(g193
I7
I01
I01
tp5200
F6233.486260425154
s(g213
I6
I00
I00
tp5201
F-6213.2000850869945
s((I1
g20
tp5202
(g45
g1
tp5203
g7
g6
tp5204
F-11228.041160745872
s((I0
g298
tp5205
(g300
g605
tp5206
g302
g302
tp5207
F-255.103856940088
s((I0
g131
tp5208
(g555
g149
tp5209
g136
g151
tp5210
F256.7671775281078
s((I0
g280
tp5211
(g282
g146
tp5212
g151
g151
tp5213
F2076.108728980955
s(g196
I9
I00
I00
tp5214
F-2750.2776354800694
s((I1
g9
tp5215
(g2446
g243
tp5216
g7
g6
tp5217
F3125.7032077437893
s((I1
g214
tp5218
(g460
g20
tp5219
g7
g6
tp5220
F865.4404902101945
s((I1
g131
tp5221
(g2135
S'10'
p5222
tp5223
g151
g151
tp5224
F-3247.7101333271626
s((I1
S'16'
p5225
tp5226
(g196
g9
tp5227
g7
g6
tp5228
F74.79079620484265
s((I0
S'15'
p5229
tp5230
(g74
S'11'
p5231
tp5232
g6
g7
tp5233
F2237.2343443319282
s((I1
g307
tp5234
(g1715
g696
tp5235
g312
g313
tp5236
F2523.379436679077
s((I0
g492
tp5237
(g139
g48
tp5238
g53
g54
tp5239
F-44821.02389581829
s((I0
g68
tp5240
(g40
S'13'
p5241
tp5242
g32
g32
tp5243
F584.8820778849345
s((I1
S'11'
p5244
tp5245
(g28
g166
tp5246
g31
g31
tp5247
F-662.0173468747389
s((I0
g153
tp5248
(S'blocked 4'
p5249
S'10'
p5250
tp5251
g32
g31
tp5252
F523.2602432598588
s(g193
I10
I00
I01
tp5253
F2549.082809653145
s((I0
g131
tp5254
(g282
g174
tp5255
g151
g151
tp5256
F-3994.0883058741147
s((I1
g91
tp5257
(g1950
g94
tp5258
g97
g97
tp5259
F-10180.55908042193
s((I1
g149
tp5260
(g567
g146
tp5261
g136
g136
tp5262
F2303.973988246467
s((I1
g94
tp5263
(g368
g257
tp5264
g97
g96
tp5265
F7187.303818054322
s((I1
S'10'
p5266
tp5267
(g28
g178
tp5268
g32
g31
tp5269
F129.98741964779322
s(g196
I12
I01
I00
tp5270
F234.6731620346959
s((I1
g9
tp5271
(g921
g15
tp5272
g6
g7
tp5273
F-11031.686443327648
s((I1
g307
tp5274
(g309
g693
tp5275
g312
g312
tp5276
F14347.08301736501
s((I1
g15
tp5277
(g286
g243
tp5278
g6
g6
tp5279
F-1050.737169544524
s((I0
g70
tp5280
(g1180
g166
tp5281
g31
g32
tp5282
F4618.5113838955795
s((I0
g153
tp5283
(g1700
g166
tp5284
g31
g32
tp5285
F2540.884257380961
s((I1
g70
tp5286
(g952
S'11'
p5287
tp5288
g31
g32
tp5289
F581.9871849035551
s((I0
g85
tp5290
(g87
g85
tp5291
g31
g31
tp5292
F-1127.7463655019906
s((I1
g91
tp5293
(g1950
g94
tp5294
g96
g97
tp5295
F-13898.103039404848
s((I1
g91
tp5296
(g1193
g91
tp5297
g96
g96
tp5298
F-36404.99880613748
s((I0
g1547
tp5299
(g1780
g298
tp5300
g607
g607
tp5301
F-176.48031244708918
s((I1
S'10'
p5302
tp5303
(g28
g85
tp5304
g32
g31
tp5305
F-322.6081012391628
s((I0
g85
tp5306
(g40
S'11'
p5307
tp5308
g32
g31
tp5309
F156.5767984674017
s((I0
g9
tp5310
(g5097
g15
tp5311
g7
g6
tp5312
F-14222.235651835368
s((I0
g1547
tp5313
(g1780
g605
tp5314
g607
g607
tp5315
F3459.14997851892
s((I0
S'10'
p5316
tp5317
(g193
g214
tp5318
g6
g6
tp5319
F159.4861822236364
s((I1
g131
tp5320
(g2439
g134
tp5321
g151
g136
tp5322
F-514.2117158434033
s((I0
g214
tp5323
(g74
g320
tp5324
g6
g7
tp5325
F82.51890074774651
s((I0
g153
tp5326
(g2170
g38
tp5327
g32
g32
tp5328
F-4196.3931522675175
s((I1
g5032
tp5329
(g5034
g5035
tp5330
S'False'
p5331
g5331
tp5332
F-7001.237518178279
s((I1
S'12'
p5333
tp5334
(g28
g29
tp5335
g32
g32
tp5336
F912.8778298025434
s(g196
I11
I01
I00
tp5337
F619.1582482194692
s((I1
S'13'
p5338
tp5339
(g196
g9
tp5340
g7
g7
tp5341
F1120.3419305099235
s(g196
I13
I00
I01
tp5342
F-1684.7855090112616
s((I1
g268
tp5343
(g1340
g48
tp5344
g54
g54
tp5345
F-21056.124745773654
s((I1
g153
tp5346
(S'open 4'
p5347
g166
tp5348
g31
g32
tp5349
F3031.8114081532135
s((I0
g4
tp5350
(g886
g1
tp5351
g7
g7
tp5352
F-5123.753522082857
s((I1
g114
tp5353
(g116
g117
tp5354
g2063
g2063
tp5355
F2531.8983252660823
s((I0
g9
tp5356
(g328
S'10'
p5357
tp5358
g6
g6
tp5359
F1130.5856745780377
s((I0
g9
tp5360
(g547
S'14'
p5361
tp5362
g7
g6
tp5363
F204.1313986113953
s((I0
g214
tp5364
(g74
g23
tp5365
g6
g6
tp5366
F1606.82380185908
s((I1
S'10'
p5367
tp5368
(g196
g1
tp5369
g7
g7
tp5370
F173.49210205761196
s((I1
g20
tp5371
(g286
g23
tp5372
g6
g6
tp5373
F-1306.7822652326827
s((I0
g9
tp5374
(g189
S'10'
p5375
tp5376
g7
g7
tp5377
F-84.57932210673471
s((I0
g1511
tp5378
(g1029
g2102
tp5379
g2104
g2104
tp5380
F-3584.827079290777
s((I0
S'11'
p5381
tp5382
(g74
g20
tp5383
g7
g7
tp5384
F173.19709496510998
s((I1
g23
tp5385
(g196
g214
tp5386
g6
g7
tp5387
F-1157.0894163068212
s((I0
g23
tp5388
(g74
g9
tp5389
g6
g6
tp5390
F675.5661881013382
s((I1
S'15'
p5391
tp5392
(g196
g243
tp5393
g7
g6
tp5394
F-28.80766819290681
s(g196
I14
I00
I00
tp5395
F552.847310961352
s((I0
g265
tp5396
(g100
g85
tp5397
g32
g32
tp5398
F506.4652203474494
s((I1
g15
tp5399
(g57
g15
tp5400
g7
g7
tp5401
F14370.278593393803
s((I1
g20
tp5402
(g640
S'12'
p5403
tp5404
g6
g6
tp5405
F-106.32167991153077
s((I1
S'14'
p5406
tp5407
(g196
g9
tp5408
g6
g7
tp5409
F-887.790800606128
s((I1
g9
tp5410
(S'blocked 4'
p5411
S'15'
p5412
tp5413
g6
g7
tp5414
F-28.60442736126015
s((I0
g214
tp5415
(g213
g243
tp5416
g6
g7
tp5417
F318.42810554777833
s((I1
S'15'
p5418
tp5419
(g196
g9
tp5420
g7
g7
tp5421
F502.243946043826
s((I0
g70
tp5422
(g87
g166
tp5423
g32
g32
tp5424
F6639.743868892037
s((I1
g257
tp5425
(g1197
g257
tp5426
g96
g97
tp5427
F-47374.47153204863
s((I1
g1020
tp5428
(g1022
g1023
tp5429
g1189
g1189
tp5430
F-582.0373421060921
s((I0
g70
tp5431
(g87
S'10'
p5432
tp5433
g32
g31
tp5434
F383.2440315340294
s((I1
g214
tp5435
(g460
g4
tp5436
g6
g6
tp5437
F-4153.81215587887
s((I1
g1
tp5438
(g756
g20
tp5439
g6
g6
tp5440
F-1554.9187955404786
s((I0
g268
tp5441
(g50
g492
tp5442
g53
g54
tp5443
F-5520.860915412333
s((I1
S'10'
p5444
tp5445
(g28
g68
tp5446
g31
g32
tp5447
F722.0381550070792
s((I1
g9
tp5448
(g1711
g1
tp5449
g7
g7
tp5450
F-18211.86628571746
s((I0
g68
tp5451
(g100
g29
tp5452
g31
g32
tp5453
F-111.37713497560134
s((I0
g243
tp5454
(g74
S'15'
p5455
tp5456
g6
g6
tp5457
F-45.51219301030588
s((I0
g257
tp5458
(g295
g91
tp5459
g96
g96
tp5460
F18608.529282887353
s((I1
g214
tp5461
(g57
S'10'
p5462
tp5463
g7
g7
tp5464
F595.3243891664596
s((I0
g85
tp5465
(g87
g70
tp5466
g31
g31
tp5467
F-7861.877516729577
s((I0
g166
tp5468
(g100
S'11'
p5469
tp5470
g31
g32
tp5471
F-2436.928914138809
s((I1
S'15'
p5472
tp5473
(g196
g9
tp5474
g6
g7
tp5475
F483.9602682099024
s((I0
g15
tp5476
(g890
g4
tp5477
g6
g7
tp5478
F59.677622867307036
s((I0
g153
tp5479
(S'open 3'
p5480
S'10'
p5481
tp5482
g32
g31
tp5483
F-1761.850783265327
s((I1
g257
tp5484
(g2357
g91
tp5485
g96
g97
tp5486
F-26855.317952551104
s(g196
I16
I00
I00
tp5487
F343.76774044588694
s((I1
g268
tp5488
(g510
g51
tp5489
g54
g53
tp5490
F-9821.424375462533
s((I1
g91
tp5491
(g1597
g91
tp5492
g96
g96
tp5493
F16469.636181769587
s((I1
g178
tp5494
(g1799
g85
tp5495
g31
g31
tp5496
F930.937693197095
s((I0
g9
tp5497
(g228
g320
tp5498
g7
g7
tp5499
F3565.056476809009
s((I1
g214
tp5500
(g57
g20
tp5501
g6
g6
tp5502
F-12848.922272546257
s((I0
g29
tp5503
(g100
g166
tp5504
g31
g32
tp5505
F-526.9350043765555
s((I0
g412
tp5506
(g4280
g556
tp5507
g136
g136
tp5508
F2402.0688655689282
s((I1
g214
tp5509
(g460
g15
tp5510
g7
g7
tp5511
F317.6637927793079
s((I0
g1
tp5512
(g61
g1
tp5513
g6
g7
tp5514
F794.0949592529068
s((I1
g131
tp5515
(g133
g134
tp5516
g151
g151
tp5517
F-821.8293884906803
s((I1
g214
tp5518
(g57
S'10'
p5519
tp5520
g6
g7
tp5521
F-265.51587884580226
s((I1
g1
tp5522
(g351
g9
tp5523
g7
g7
tp5524
F6898.992170143709
s((I1
S'14'
p5525
tp5526
(g196
g243
tp5527
g6
g6
tp5528
F525.1929596222196
s((I1
g29
tp5529
(g28
g178
tp5530
g31
g32
tp5531
F349.26146594798456
s((I0
g9
tp5532
(g858
g4
tp5533
g7
g6
tp5534
F-2835.436328516178
s((I1
g214
tp5535
(g196
g1
tp5536
g6
g7
tp5537
F-1602.0400552531892
s((I1
g1
tp5538
(g57
g214
tp5539
g6
g6
tp5540
F-204.74016165346973
s((I1
g559
tp5541
(g2618
g1619
tp5542
g564
g564
tp5543
F803.0643062760581
s((I0
g91
tp5544
(g170
g422
tp5545
g96
g97
tp5546
F-1087.1550968925258
s((I1
g15
tp5547
(g57
g15
tp5548
g6
g6
tp5549
F-4662.186984054077
s((I1
g23
tp5550
(g196
g20
tp5551
g6
g6
tp5552
F-3032.2304367351103
s((I1
g20
tp5553
(g401
S'15'
p5554
tp5555
g6
g6
tp5556
F-278.4283664828329
s((I0
g166
tp5557
(g40
S'11'
p5558
tp5559
g31
g32
tp5560
F1045.7783302371847
s((I0
g280
tp5561
(g282
g174
tp5562
g151
g151
tp5563
F2286.0307159844824
s((I0
g1
tp5564
(g213
g9
tp5565
g7
g7
tp5566
F7565.327964112797
s((I0
g15
tp5567
(g193
g15
tp5568
g7
g6
tp5569
F-12267.454881042835
s((I1
g9
tp5570
(g1711
g4
tp5571
g6
g7
tp5572
F-7098.688671063749
s((I1
g307
tp5573
(g309
g310
tp5574
g313
g312
tp5575
F-652.4128413984632
s((I1
g166
tp5576
(g1964
g70
tp5577
g31
g32
tp5578
F-3332.035698683364
s((I0
g298
tp5579
(g300
g298
tp5580
g607
g607
tp5581
F12450.397005081346
s(g309
I4
I01
I00
tp5582
F2601.142185590742
s((I1
S'10'
p5583
tp5584
(g28
g85
tp5585
g31
g32
tp5586
F478.8237766309652
s((I0
g320
tp5587
(g74
S'14'
p5588
tp5589
g6
g7
tp5590
F-22.656087106916285
s((I0
g38
tp5591
(g40
S'10'
p5592
tp5593
g31
g32
tp5594
F-374.55304275901904
s((I1
S'14'
p5595
tp5596
(g196
g9
tp5597
g7
g7
tp5598
F-758.3967674616281
s((I1
g1
tp5599
(g756
g1
tp5600
g6
g7
tp5601
F1444.1863944245868
s((I0
g1
tp5602
(g213
g1
tp5603
g7
g7
tp5604
F4962.519705091869
s((I0
S'15'
p5605
tp5606
(g74
g20
tp5607
g7
g6
tp5608
F-1663.5878863723124
s((I1
g20
tp5609
(S'open 2'
p5610
g23
tp5611
g7
g6
tp5612
F313.9499440888571
s((I0
g214
tp5613
(g213
g1
tp5614
g7
g7
tp5615
F-360.58550805089317
s((I1
S'12'
p5616
tp5617
(g28
g265
tp5618
g31
g32
tp5619
F-394.68450793718614
s((I1
g29
tp5620
(g28
g178
tp5621
g32
g31
tp5622
F-262.2732172589669
s((I0
g23
tp5623
(g74
S'14'
p5624
tp5625
g7
g7
tp5626
F-313.1429617770379
s((I1
g20
tp5627
(g3569
g20
tp5628
g6
g7
tp5629
F-37976.69175438394
s((I0
g214
tp5630
(g193
g20
tp5631
g7
g7
tp5632
F-1452.7358802718686
s((I0
g1
tp5633
(g35
g1
tp5634
g7
g7
tp5635
F2376.4581715719905
s((I1
g473
tp5636
(S'blocked 2'
p5637
g696
tp5638
g312
g313
tp5639
F-884.3614062272459
s((I1
g91
tp5640
(g3231
g257
tp5641
g97
g97
tp5642
F10005.779152003088
s((I0
g20
tp5643
(g228
g20
tp5644
g7
g6
tp5645
F1036.0182685446432
s((I0
g268
tp5646
(g50
g51
tp5647
g54
g54
tp5648
F3176.5241174072225
s((I0
g70
tp5649
(g87
S'13'
p5650
tp5651
g32
g31
tp5652
F484.84338791445174
s((I0
g298
tp5653
(g300
g1547
tp5654
g302
g302
tp5655
F-194.59291221441197
s((I0
g298
tp5656
(g300
g298
tp5657
g607
g302
tp5658
F2242.0237016743204
s((I1
g9
tp5659
(g4190
g320
tp5660
g6
g7
tp5661
F-167.8390277579496
s((I0
g153
tp5662
(g674
S'11'
p5663
tp5664
g32
g32
tp5665
F-981.0747743878349
s((I1
g29
tp5666
(g28
g85
tp5667
g32
g31
tp5668
F-226.19289273444377
s((I0
S'10'
p5669
tp5670
(g193
g1
tp5671
g6
g7
tp5672
F-256.49193941408174
s((I1
g9
tp5673
(g247
S'11'
p5674
tp5675
g6
g7
tp5676
F1925.752113970067
s((I1
g214
tp5677
(g57
g4
tp5678
g6
g6
tp5679
F-723.4047284620804
s((I1
g1
tp5680
(g57
g1
tp5681
g7
g6
tp5682
F1998.822338088198
s((I0
g85
tp5683
(g87
g68
tp5684
g32
g31
tp5685
F5232.555623187926
s((I1
S'14'
p5686
tp5687
(g196
S'10'
p5688
tp5689
g6
g7
tp5690
F-1075.434502418093
s((I1
g9
tp5691
(S'open 3'
p5692
S'14'
p5693
tp5694
g6
g7
tp5695
F-1740.4900266888153
s((I1
g23
tp5696
(g196
g1
tp5697
g6
g7
tp5698
F715.5476528965352
s((I0
g48
tp5699
(g4663
g492
tp5700
g53
g54
tp5701
F1285.5695786864922
s((I0
g265
tp5702
(g100
S'11'
p5703
tp5704
g32
g31
tp5705
F-322.2864110249019
s((I1
S'12'
p5706
tp5707
(g196
g20
tp5708
g7
g7
tp5709
F105.26503888721585
s((I0
g9
tp5710
(g328
S'12'
p5711
tp5712
g6
g6
tp5713
F858.4531668784991
s((I0
g4
tp5714
(g74
S'13'
p5715
tp5716
g6
g6
tp5717
F368.864391937049
s((I0
g1
tp5718
(g35
g1
tp5719
g6
g6
tp5720
F6004.208715512557
s((I1
g91
tp5721
(g1091
g91
tp5722
g96
g97
tp5723
F-17864.849057491458
s((I0
g91
tp5724
(g711
g94
tp5725
g96
g96
tp5726
F18445.080898820983
s((I1
g1
tp5727
(g351
g15
tp5728
g6
g6
tp5729
F-27797.46281504112
s((I1
g20
tp5730
(g286
g320
tp5731
g7
g6
tp5732
F1828.3754678542946
s((I0
g153
tp5733
(g2143
g38
tp5734
g31
g32
tp5735
F21026.581798100044
s((I0
g70
tp5736
(g87
S'11'
p5737
tp5738
g31
g31
tp5739
F911.8979706213636
s((I0
g29
tp5740
(g100
S'13'
p5741
tp5742
g32
g32
tp5743
F407.9790421319379
s((I1
g166
tp5744
(g376
S'13'
p5745
tp5746
g31
g32
tp5747
F106.76402106846223
s((I0
g134
tp5748
(g282
g146
tp5749
g151
g151
tp5750
F-95.16608181753546
s((I1
g20
tp5751
(g505
S'12'
p5752
tp5753
g6
g7
tp5754
F-170.45012108420642
s((I1
g91
tp5755
(g1295
g257
tp5756
g96
g96
tp5757
F11295.141042008308
s((I1
g15
tp5758
(g4520
g1
tp5759
g7
g6
tp5760
F9268.91071001236
s(g1340
I2
I00
I00
tp5761
F-65545.8130783189
s((I0
g9
tp5762
(g3269
g20
tp5763
g7
g7
tp5764
F17800.7441337557
s((I1
g268
tp5765
(g510
g268
tp5766
g53
g53
tp5767
F31489.970778696737
s((I1
g20
tp5768
(g65
g9
tp5769
g6
g7
tp5770
F-13245.259841515277
s((I0
g91
tp5771
(g862
g257
tp5772
g96
g96
tp5773
F2804.484673944592
s((I0
g9
tp5774
(g82
S'11'
p5775
tp5776
g7
g7
tp5777
F-333.44178073782007
s((I1
g134
tp5778
(g148
g412
tp5779
g151
g151
tp5780
F-2527.475370670721
s((I1
g15
tp5781
(g1246
g1
tp5782
g6
g6
tp5783
F-9491.660310976516
s((I0
g9
tp5784
(g328
S'12'
p5785
tp5786
g6
g7
tp5787
F-1618.936179729487
s((I0
g131
tp5788
(g555
g412
tp5789
g136
g136
tp5790
F31251.18248305696
s((I1
g473
tp5791
(g3518
g3519
tp5792
g313
g313
tp5793
F-2549.3803932575856
s((I0
g9
tp5794
(g2848
g243
tp5795
g7
g6
tp5796
F612.3281918422492
s((I1
g20
tp5797
(g45
g320
tp5798
g7
g6
tp5799
F-674.1571818604327
s((I0
g9
tp5800
(g2848
S'16'
p5801
tp5802
g6
g7
tp5803
F-442.1255646634197
s((I0
g23
tp5804
(g74
S'14'
p5805
tp5806
g6
g6
tp5807
F369.0549548911802
s((I1
g422
tp5808
(g368
g91
tp5809
g97
g97
tp5810
F7008.68669521018
s((I1
g15
tp5811
(g17
g4
tp5812
g6
g7
tp5813
F-4586.679640163247
s(g213
I5
I01
I01
tp5814
F7525.058925267755
s((I0
g4
tp5815
(g74
S'13'
p5816
tp5817
g7
g6
tp5818
F-54.84964118734888
s((I1
S'10'
p5819
tp5820
(g196
g1
tp5821
g6
g6
tp5822
F56.0362727252776
s((I1
g9
tp5823
(g286
g4
tp5824
g7
g7
tp5825
F-7907.97972351947
s((I1
g38
tp5826
(g376
S'12'
p5827
tp5828
g32
g32
tp5829
F1450.5661438423983
s((I0
g605
tp5830
(g1889
g1547
tp5831
g302
g302
tp5832
F223.3813901152505
s((I0
g15
tp5833
(g213
S'10'
p5834
tp5835
g7
g6
tp5836
F3041.8472914388667
s((I1
g214
tp5837
(g196
g1
tp5838
g7
g6
tp5839
F1829.5386491620548
s((I1
g174
tp5840
(g148
g149
tp5841
g151
g136
tp5842
F-8080.732706288956
s((I1
g9
tp5843
(g286
g4
tp5844
g6
g7
tp5845
F-1924.5283745171014
s(g1091
I1
I01
I00
tp5846
F24751.554176137364
s((I1
g9
tp5847
(g286
g214
tp5848
g6
g6
tp5849
F18700.9071734422
s((I1
g9
tp5850
(g640
S'11'
p5851
tp5852
g6
g6
tp5853
F-1389.2331913093938
s((I1
g20
tp5854
(g290
S'10'
p5855
tp5856
g7
g6
tp5857
F1038.909301199995
s((I1
g134
tp5858
(g148
g412
tp5859
g136
g136
tp5860
F8494.792921179642
s((I0
g9
tp5861
(g328
S'15'
p5862
tp5863
g7
g6
tp5864
F-671.1578830375556
s((I1
g1
tp5865
(g351
g1
tp5866
g7
g7
tp5867
F-257.76451863803993
s((I1
g38
tp5868
(g376
g29
tp5869
g31
g31
tp5870
F-790.5509530178792
s((I0
g9
tp5871
(g189
S'13'
p5872
tp5873
g7
g6
tp5874
F125.58217818948697
s((I0
g68
tp5875
(g40
g166
tp5876
g32
g32
tp5877
F96.32311198456031
s((I1
g131
tp5878
(g1854
g174
tp5879
g136
g151
tp5880
F3329.76183207945
s((I1
g29
tp5881
(g28
g85
tp5882
g31
g32
tp5883
F125.43434194648228
s((I0
g68
tp5884
(g165
g166
tp5885
g31
g31
tp5886
F-499.98739835215974
s((I0
g48
tp5887
(g2737
g48
tp5888
g54
g54
tp5889
F7949.397215885408
s((I0
g29
tp5890
(g100
S'13'
p5891
tp5892
g31
g31
tp5893
F-337.7703128148236
s((I0
g1547
tp5894
(g1780
g298
tp5895
g302
g302
tp5896
F200.0652596847746
s((I0
g91
tp5897
(g170
g91
tp5898
g97
g96
tp5899
F-15516.706315810556
s((I1
g48
tp5900
(g270
g51
tp5901
g53
g53
tp5902
F15115.40224963082
s((I1
g1
tp5903
(g361
g15
tp5904
g6
g7
tp5905
F-3346.219027657292
s((I0
g51
tp5906
(g139
g48
tp5907
g54
g54
tp5908
F6270.051292364533
s((I0
g85
tp5909
(g2920
g29
tp5910
g31
g32
tp5911
F-1606.7323293969976
s((I0
g29
tp5912
(g100
S'11'
p5913
tp5914
g31
g32
tp5915
F-547.9109372272092
s((I1
g9
tp5916
(g2117
S'15'
p5917
tp5918
g6
g7
tp5919
F265.7484649645629
s((I1
g15
tp5920
(g3
g4
tp5921
g7
g6
tp5922
F1004.2390915208252
s((I0
g85
tp5923
(g40
g265
tp5924
g32
g31
tp5925
F210.83338959117725
s((I1
S'11'
p5926
tp5927
(g28
g29
tp5928
g31
g31
tp5929
F512.0098940193274
s((I0
g268
tp5930
(g50
g51
tp5931
g53
g54
tp5932
F-9017.14387434091
s((I1
S'12'
p5933
tp5934
(g28
g85
tp5935
g31
g32
tp5936
F-261.50043252531015
s((I0
g9
tp5937
(g575
S'12'
p5938
tp5939
g6
g6
tp5940
F256.7899576301147
s((I0
g243
tp5941
(g193
g20
tp5942
g7
g6
tp5943
F-14.010952886917494
s((I0
g1
tp5944
(g74
g23
tp5945
g6
g7
tp5946
F-95.9908804867272
s((I0
g153
tp5947
(g3317
g166
tp5948
g31
g32
tp5949
F-8695.713354621585
s((I1
g9
tp5950
(g200
S'11'
p5951
tp5952
g6
g7
tp5953
F1460.2404829553066
s((I0
g149
tp5954
(g282
g146
tp5955
g136
g136
tp5956
F354.56144438385536
s((I0
g38
tp5957
(g40
S'13'
p5958
tp5959
g32
g31
tp5960
F415.48930731562575
s((I0
g20
tp5961
(g193
g1
tp5962
g7
g7
tp5963
F-2228.9662515251157
s((I0
g20
tp5964
(g228
S'14'
p5965
tp5966
g6
g7
tp5967
F-12.583943976904077
s((I0
g91
tp5968
(g711
g94
tp5969
g97
g97
tp5970
F-11841.810680546543
s((I1
g153
tp5971
(g155
S'13'
p5972
tp5973
g32
g31
tp5974
F-48.86803441156764
s((I1
g20
tp5975
(g536
S'13'
p5976
tp5977
g6
g6
tp5978
F72.12940905549675
s(g756
I5
I01
I01
tp5979
F7672.433431152677
s(g108
I2
I00
I00
tp5980
F-48979.06216858901
s((I1
g20
tp5981
(g286
g1
tp5982
g7
g6
tp5983
F1797.8558174327134
s((I1
g20
tp5984
(g290
g214
tp5985
g7
g7
tp5986
F11403.054936703336
s(g196
I11
I01
I01
tp5987
F2125.1964894658813
s((I1
g15
tp5988
(g286
g214
tp5989
g6
g6
tp5990
F-17808.957242150907
s((I0
g412
tp5991
(g4280
g280
tp5992
g151
g136
tp5993
F-7741.976080299392
s((I0
S'13'
p5994
tp5995
(g74
g9
tp5996
g6
g6
tp5997
F1114.8425951626937
s((I1
g1
tp5998
(g351
g20
tp5999
g7
g6
tp6000
F2495.3843935900854
s((I1
g15
tp6001
(g3
g4
tp6002
g6
g6
tp6003
F-5133.376262170672
s((I1
g174
tp6004
(g447
g134
tp6005
g151
g136
tp6006
F2438.376056765894
s((I0
g257
tp6007
(g295
g257
tp6008
g96
g96
tp6009
F9529.073021673006
s((I0
g70
tp6010
(g87
g265
tp6011
g32
g32
tp6012
F688.8085589957423
s((I1
g1058
tp6013
(g1060
g1058
tp6014
g1158
g1158
tp6015
F4521.501066255966
s((I0
g20
tp6016
(g328
S'14'
p6017
tp6018
g6
g6
tp6019
F-121.75554567757885
s((I0
g1
tp6020
(g74
g243
tp6021
g6
g6
tp6022
F-1709.812479483037
s((I0
g9
tp6023
(g82
g23
tp6024
g6
g6
tp6025
F635.5441234440418
s((I0
g85
tp6026
(g87
g29
tp6027
g31
g32
tp6028
F132.02084665942186
s((I0
g9
tp6029
(g189
S'13'
p6030
tp6031
g6
g6
tp6032
F539.2174856707229
s((I0
g68
tp6033
(g100
S'10'
p6034
tp6035
g32
g31
tp6036
F-873.3125738123875
s((I1
g9
tp6037
(g11
S'13'
p6038
tp6039
g7
g7
tp6040
F-1612.0890531129223
s((I1
g70
tp6041
(g952
g265
tp6042
g32
g31
tp6043
F-283.24537599701034
s((I1
g134
tp6044
(g148
g131
tp6045
g136
g136
tp6046
F5734.162441077015
s((I0
g9
tp6047
(g228
g243
tp6048
g6
g6
tp6049
F1915.2983919120088
s((I1
g20
tp6050
(g813
g4
tp6051
g7
g6
tp6052
F-1163.5858278527671
s((I1
g70
tp6053
(g952
g29
tp6054
g32
g31
tp6055
F-538.4913694272263
s((I1
g214
tp6056
(g460
g9
tp6057
g6
g7
tp6058
F-1473.6815926861084
s((I0
g38
tp6059
(g40
g166
tp6060
g32
g32
tp6061
F-6449.240275844327
s((I0
g320
tp6062
(g74
g20
tp6063
g7
g6
tp6064
F-466.49950192947466
s((I0
S'10'
p6065
tp6066
(g74
S'14'
p6067
tp6068
g7
g6
tp6069
F-232.9692738397335
s((I0
g4
tp6070
(g886
g9
tp6071
g7
g7
tp6072
F-2095.763046911552
s((I0
g4
tp6073
(g886
g15
tp6074
g6
g6
tp6075
F12771.80845781308
s((I1
g23
tp6076
(g196
g9
tp6077
g7
g7
tp6078
F505.7600928455743
s((I0
g70
tp6079
(g40
g68
tp6080
g31
g31
tp6081
F-6216.406038823646
s((I1
g134
tp6082
(g148
g280
tp6083
g151
g151
tp6084
F-878.7310689589299
s((I1
g131
tp6085
(g764
g146
tp6086
g151
g136
tp6087
F781.1267473586403
s((I0
g85
tp6088
(g87
S'11'
p6089
tp6090
g32
g31
tp6091
F150.70144749755391
s((I0
g20
tp6092
(g228
g320
tp6093
g7
g6
tp6094
F40.12927994879993
s((I0
S'11'
p6095
tp6096
(g74
g9
tp6097
g7
g7
tp6098
F366.25916515060453
s((I0
g412
tp6099
(g282
g134
tp6100
g151
g151
tp6101
F-490.2273330120396
s((I0
g38
tp6102
(g40
g29
tp6103
g32
g32
tp6104
F-183.98214979142742
s((I0
g153
tp6105
(g3317
g166
tp6106
g31
g31
tp6107
F3987.1362084050716
s((I0
g214
tp6108
(g193
g9
tp6109
g7
g7
tp6110
F-10920.218770417185
s((I0
g85
tp6111
(g40
g166
tp6112
g32
g31
tp6113
F7585.61736446999
s((I0
g20
tp6114
(g328
S'11'
p6115
tp6116
g7
g7
tp6117
F379.34244826047455
s((I0
g94
tp6118
(g121
g91
tp6119
g97
g97
tp6120
F17273.088311414984
s((I1
g174
tp6121
(g148
g412
tp6122
g136
g136
tp6123
F13753.349950725566
s((I1
g1
tp6124
(g351
g9
tp6125
g6
g7
tp6126
F-12970.180614192257
s(g57
I5
I01
I01
tp6127
F19633.359270404002
s((I0
g492
tp6128
(g139
g268
tp6129
g53
g54
tp6130
F-4907.594838876485
s((I1
S'11'
p6131
tp6132
(g196
g20
tp6133
g6
g6
tp6134
F-537.03627031943
s((I1
g1
tp6135
(g57
g15
tp6136
g6
g6
tp6137
F3730.067677446227
s((I1
g268
tp6138
(g1340
g48
tp6139
g53
g53
tp6140
F17153.101557231872
s((I1
g91
tp6141
(g1091
g422
tp6142
g96
g97
tp6143
F-4506.74952759354
s(g193
I7
I00
I00
tp6144
F-6507.702926671634
s((I1
g412
tp6145
(g1854
g174
tp6146
g136
g136
tp6147
F1738.2570417518536
s((I0
g29
tp6148
(g100
g70
tp6149
g31
g31
tp6150
F-895.9089639805276
s((I1
g1
tp6151
(g57
g20
tp6152
g6
g6
tp6153
F7932.3047521392255
s((I1
S'10'
p6154
tp6155
(g28
g166
tp6156
g31
g32
tp6157
F-1120.4443063563476
s((I1
g307
tp6158
(g309
g473
tp6159
g313
g313
tp6160
F-4603.792926259217
s((I0
g68
tp6161
(g40
g29
tp6162
g32
g31
tp6163
F435.08423378237455
s((I0
g166
tp6164
(g100
S'10'
p6165
tp6166
g31
g31
tp6167
F814.8262133559106
s((I1
g174
tp6168
(g447
g174
tp6169
g136
g151
tp6170
F475.38317773728386
s((I1
g214
tp6171
(g460
g214
tp6172
g6
g6
tp6173
F-2166.838979860361
s((I0
g29
tp6174
(g100
S'10'
p6175
tp6176
g31
g32
tp6177
F-875.8526271178403
s((I1
g9
tp6178
(g161
g4
tp6179
g6
g7
tp6180
F-8786.622992626224
s((I0
g9
tp6181
(g82
g1
tp6182
g7
g6
tp6183
F-3987.1688432781575
s((I1
g91
tp6184
(g1950
g94
tp6185
g96
g96
tp6186
F7825.163409943442
s(g196
I8
I00
I01
tp6187
F2260.1553782987494
s((I1
g320
tp6188
(g196
g9
tp6189
g7
g7
tp6190
F-144.79356418368045
s((I0
g134
tp6191
(g594
g174
tp6192
g136
g151
tp6193
F-2734.101471821016
s((I0
g166
tp6194
(g40
g265
tp6195
g31
g31
tp6196
F-254.2902186538514
s((I0
g265
tp6197
(g100
g38
tp6198
g32
g31
tp6199
F510.44468467517606
s((I0
g38
tp6200
(g40
S'13'
p6201
tp6202
g31
g32
tp6203
F-225.12922972239187
s((I1
g153
tp6204
(g1144
g166
tp6205
g31
g31
tp6206
F-1520.162270151756
s((I1
g131
tp6207
(g764
g146
tp6208
g151
g151
tp6209
F1199.5083399062732
s((I0
g605
tp6210
(g1889
g298
tp6211
g607
g607
tp6212
F-75.29743533474023
s((I1
g85
tp6213
(g2843
S'10'
p6214
tp6215
g32
g32
tp6216
F-699.098046141083
s((I0
g70
tp6217
(g324
g70
tp6218
g32
g31
tp6219
F4329.914366951066
s((I0
g178
tp6220
(g100
g29
tp6221
g32
g32
tp6222
F287.7751272389702
s((I1
g15
tp6223
(g286
g15
tp6224
g7
g6
tp6225
F15102.261739938791
s((I1
g904
tp6226
(g906
g1547
tp6227
g607
g302
tp6228
F377.36512493627913
s((I0
S'15'
p6229
tp6230
(g74
g9
tp6231
g7
g6
tp6232
F-2628.242330034405
s((I1
S'13'
p6233
tp6234
(g28
g29
tp6235
g31
g31
tp6236
F603.4929618396238
s((I1
g20
tp6237
(g536
S'11'
p6238
tp6239
g7
g7
tp6240
F-1600.9275365027736
s((I1
g70
tp6241
(g952
g265
tp6242
g31
g32
tp6243
F-6.134243878766711
s((I1
g1
tp6244
(g3
g4
tp6245
g6
g6
tp6246
F-1291.8054432179308
s((I1
g85
tp6247
(g1144
g166
tp6248
g32
g31
tp6249
F-5704.669624620977
s((I1
g9
tp6250
(g401
g243
tp6251
g6
g7
tp6252
F52.2177332742105
s((I0
g166
tp6253
(g100
S'10'
p6254
tp6255
g32
g31
tp6256
F176.54376328410797
s((I0
g214
tp6257
(g193
g9
tp6258
g6
g6
tp6259
F5083.588411387618
s((I1
g153
tp6260
(g5086
S'12'
p6261
tp6262
g32
g31
tp6263
F226.22889313680105
s((I0
g29
tp6264
(g100
g85
tp6265
g32
g32
tp6266
F364.926229711196
s((I0
g257
tp6267
(g108
g91
tp6268
g96
g96
tp6269
F27130.219034099497
s((I0
g298
tp6270
(g300
g605
tp6271
g607
g302
tp6272
F5707.019854682306
s((I1
g68
tp6273
(g1448
g166
tp6274
g32
g31
tp6275
F205.92598231148443
s((I1
S'11'
p6276
tp6277
(g28
g85
tp6278
g32
g32
tp6279
F-2244.9007825349113
s((I0
g280
tp6280
(g282
g146
tp6281
g136
g151
tp6282
F-6163.002832764529
s((I0
g91
tp6283
(g711
g94
tp6284
g97
g96
tp6285
F1137.0869385278575
s((I0
g153
tp6286
(g5249
S'10'
p6287
tp6288
g31
g32
tp6289
F-275.0988344215549
s((I0
g1547
tp6290
(g1780
g1547
tp6291
g302
g302
tp6292
F-4788.507234784378
s((I0
g149
tp6293
(g4280
g556
tp6294
g136
g136
tp6295
F-3833.336988585239
s((I1
S'12'
p6296
tp6297
(g196
S'13'
p6298
tp6299
g6
g6
tp6300
F1269.5990245709186
s(g193
I9
I01
I00
tp6301
F-695.2943882496768
s((I0
g9
tp6302
(g82
S'10'
p6303
tp6304
g6
g7
tp6305
F-1555.8403419462545
s((I1
g20
tp6306
(g3261
g1
tp6307
g6
g6
tp6308
F6926.487962289301
s((I1
S'10'
p6309
tp6310
(g28
g166
tp6311
g32
g31
tp6312
F662.980561238066
s((I1
g146
tp6313
(g148
g134
tp6314
g136
g136
tp6315
F16.95751645565615
s(g196
I11
I00
I01
tp6316
F379.9868559810358
s((I0
g70
tp6317
(g87
S'10'
p6318
tp6319
g31
g31
tp6320
F-46.182055441929435
s((I1
S'14'
p6321
tp6322
(g196
g9
tp6323
g6
g6
tp6324
F252.9743000656073
s((I0
g9
tp6325
(g328
g320
tp6326
g6
g7
tp6327
F6.611922646577568
s((I1
g559
tp6328
(g2618
g1619
tp6329
g2155
g564
tp6330
F-866.9220049025847
s((I0
g29
tp6331
(g100
g68
tp6332
g31
g32
tp6333
F811.18291818992
s((I1
g20
tp6334
(g45
S'10'
p6335
tp6336
g7
g7
tp6337
F1547.2936704205804
s((I1
g85
tp6338
(g2843
S'10'
p6339
tp6340
g31
g31
tp6341
F959.131109878492
s((I0
g9
tp6342
(g2264
S'11'
p6343
tp6344
g7
g6
tp6345
F-2805.6897290662027
s((I1
S'13'
p6346
tp6347
(g196
S'11'
p6348
tp6349
g7
g6
tp6350
F-823.7775379352414
s((I0
g1
tp6351
(g213
g20
tp6352
g7
g7
tp6353
F506.01186097065374
s((I1
S'11'
p6354
tp6355
(g28
g166
tp6356
g32
g32
tp6357
F-2199.45881222514
s((I0
g20
tp6358
(g328
S'14'
p6359
tp6360
g6
g7
tp6361
F-766.567691164223
s((I1
g214
tp6362
(g57
g214
tp6363
g7
g7
tp6364
F12097.510260371871
s((I1
g9
tp6365
(g640
S'13'
p6366
tp6367
g7
g6
tp6368
F-724.2378107796095
s((I0
g68
tp6369
(g100
S'11'
p6370
tp6371
g32
g32
tp6372
F366.7842412308279
s(g196
I12
I00
I00
tp6373
F2209.4991863589576
s((I1
g9
tp6374
(g286
g4
tp6375
g7
g6
tp6376
F-308.1454599041109
s((I1
g653
tp6377
(g655
g969
tp6378
g971
g657
tp6379
F1817.8063912424586
s((I1
g9
tp6380
(g3620
S'13'
p6381
tp6382
g7
g6
tp6383
F37.34402112839223
s((I0
g4
tp6384
(g213
g1
tp6385
g7
g6
tp6386
F345.0661684314226
s((I1
g20
tp6387
(g45
g1
tp6388
g7
g7
tp6389
F2124.349694189996
s((I0
g4770
tp6390
(g4772
g4770
tp6391
S'True'
p6392
g6392
tp6393
F1917.958975028763
s((I0
g38
tp6394
(g40
g166
tp6395
g31
g31
tp6396
F7727.558208046182
s((I0
g131
tp6397
(S'blocked 4'
p6398
g146
tp6399
g151
g136
tp6400
F-380.7003324183797
s((I0
g85
tp6401
(g87
g166
tp6402
g32
g31
tp6403
F1583.4790871996495
s((I1
g178
tp6404
(g28
g166
tp6405
g31
g32
tp6406
F143.62042436184726
s((I0
g214
tp6407
(g193
g1
tp6408
g6
g6
tp6409
F635.5694063390563
s((I1
S'11'
p6410
tp6411
(g196
g20
tp6412
g7
g7
tp6413
F553.0425166353652
s((I0
g29
tp6414
(g100
S'12'
p6415
tp6416
g31
g32
tp6417
F867.092543112893
s((I0
g214
tp6418
(g74
S'13'
p6419
tp6420
g7
g7
tp6421
F102.10997646724726
s((I1
g1
tp6422
(g351
g15
tp6423
g7
g7
tp6424
F20325.680613057335
s((I1
g9
tp6425
(g5411
S'15'
p6426
tp6427
g7
g6
tp6428
F-111.06029643908181
s((I1
S'10'
p6429
tp6430
(g28
g85
tp6431
g32
g32
tp6432
F214.6519814576426
s((I1
g214
tp6433
(g57
S'10'
p6434
tp6435
g6
g6
tp6436
F-805.5835260321387
s((I0
g153
tp6437
(g3238
S'13'
p6438
tp6439
g32
g31
tp6440
F261.4778917724825
s((I0
g20
tp6441
(g228
g320
tp6442
g6
g7
tp6443
F558.9225610427883
s((I0
g91
tp6444
(g984
g91
tp6445
g96
g97
tp6446
F19365.878461591863
s((I1
g166
tp6447
(g376
g29
tp6448
g31
g31
tp6449
F420.96089077486477
s((I1
g1
tp6450
(g756
g9
tp6451
g6
g7
tp6452
F-1438.7826399588184
s((I1
g91
tp6453
(g1034
g91
tp6454
g96
g97
tp6455
F-14514.206280326649
s(g196
I16
I01
I01
tp6456
F-574.1727457182309
s((I1
S'13'
p6457
tp6458
(g28
g29
tp6459
g32
g32
tp6460
F-599.2734967180857
s((I0
g131
tp6461
(g555
g131
tp6462
g151
g136
tp6463
F-14054.365285922828
s((I1
g91
tp6464
(g1114
g422
tp6465
g97
g97
tp6466
F-13882.464411262063
s(g213
I6
I01
I01
tp6467
F6753.456261924291
s((I1
g412
tp6468
(g567
g134
tp6469
g136
g136
tp6470
F-343.9570676666291
s((I0
g91
tp6471
(S'open 2'
p6472
g257
tp6473
g97
g96
tp6474
F-7098.870039595777
s((I0
g412
tp6475
(g282
g146
tp6476
g151
g151
tp6477
F-525.7856430638567
s((I0
g166
tp6478
(g165
g166
tp6479
g32
g32
tp6480
F593.5252913601078
s((I1
g15
tp6481
(g286
g243
tp6482
g6
g7
tp6483
F-293.3959959636817
s((I1
g20
tp6484
(g22
g23
tp6485
g6
g6
tp6486
F-2745.5719419471225
s((I1
g9
tp6487
(g5692
S'14'
p6488
tp6489
g7
g6
tp6490
F1510.9253334896775
s((I0
g70
tp6491
(g2614
g85
tp6492
g31
g32
tp6493
F-1061.0072125467398
s((I0
g265
tp6494
(g100
g85
tp6495
g32
g31
tp6496
F462.7500054658811
s((I0
S'10'
p6497
tp6498
(g193
g9
tp6499
g6
g6
tp6500
F1030.5431043732997
s((I0
g29
tp6501
(g100
g38
tp6502
g32
g32
tp6503
F-46.3637160144803
s((I1
g48
tp6504
(g3416
g492
tp6505
g53
g53
tp6506
F-570.111449067917
s((I0
g15
tp6507
(g213
g15
tp6508
g7
g6
tp6509
F2046.4440695138846
s((I1
S'15'
p6510
tp6511
(g196
g320
tp6512
g7
g6
tp6513
F-144.2300568962884
s((I0
g214
tp6514
(g74
S'12'
p6515
tp6516
g6
g7
tp6517
F230.55523867622833
s((I0
g265
tp6518
(g100
g85
tp6519
g31
g31
tp6520
F-743.9454660195674
s((I1
g473
tp6521
(g5637
g696
tp6522
g313
g312
tp6523
F321.3481881524424
s((I1
S'13'
p6524
tp6525
(g28
g29
tp6526
g31
g32
tp6527
F320.0179125426907
s((I1
S'11'
p6528
tp6529
(g196
g9
tp6530
g7
g7
tp6531
F2383.997129421919
s((I1
g268
tp6532
(g270
g268
tp6533
g53
g53
tp6534
F-2711.1464021074407
s((I1
g9
tp6535
(g501
g4
tp6536
g7
g7
tp6537
F-6301.434870012044
s((I1
g91
tp6538
(g143
g91
tp6539
g96
g97
tp6540
F-1236.421531233629
s((I1
g131
tp6541
(g823
g1590
tp6542
g136
g136
tp6543
F676.6917969540635
s((I1
g134
tp6544
(g447
g149
tp6545
g136
g151
tp6546
F823.2404112560324
s((I1
g91
tp6547
(g4312
g94
tp6548
g97
g96
tp6549
F-8557.63084577358
s((I0
S'10'
p6550
tp6551
(g193
g20
tp6552
g7
g6
tp6553
F-1262.6654401494943
s((I0
g38
tp6554
(g40
S'10'
p6555
tp6556
g32
g32
tp6557
F-602.7357139563721
s((I1
g9
tp6558
(g921
S'10'
p6559
tp6560
g7
g6
tp6561
F-510.78754367093313
s((I1
g70
tp6562
(g2843
g29
tp6563
g31
g32
tp6564
F240.41069288638894
s((I0
g9
tp6565
(g328
S'11'
p6566
tp6567
g6
g7
tp6568
F-319.60242257003836
s((I0
g214
tp6569
(g193
g15
tp6570
g7
g7
tp6571
F-5641.299056469494
s((I0
g85
tp6572
(g40
g166
tp6573
g31
g32
tp6574
F-8013.362352088449
s((I1
g153
tp6575
(g5347
g166
tp6576
g32
g31
tp6577
F-5286.8165136461375
s((I1
g9
tp6578
(g3035
g214
tp6579
g7
g7
tp6580
F-16544.159037877722
s((I1
g68
tp6581
(g28
g166
tp6582
g32
g32
tp6583
F-230.27484909196937
s((I1
g38
tp6584
(g376
S'13'
p6585
tp6586
g31
g32
tp6587
F246.8631091314061
s((I0
g412
tp6588
(g282
g146
tp6589
g136
g136
tp6590
F182.31395833552452
s((I0
g9
tp6591
(g82
S'10'
p6592
tp6593
g7
g6
tp6594
F1554.719655272851
s((I1
g214
tp6595
(g57
g1
tp6596
g6
g6
tp6597
F-274.91710922910795
s((I0
g149
tp6598
(g594
g174
tp6599
g136
g151
tp6600
F-4617.968204248176
s((I1
g243
tp6601
(g196
g20
tp6602
g6
g7
tp6603
F-1869.3462770528195
s((I0
g91
tp6604
(g711
g94
tp6605
g96
g97
tp6606
F2908.221244004604
s((I1
S'13'
p6607
tp6608
(g196
g20
tp6609
g6
g7
tp6610
F-487.16541952146355
s((I1
g20
tp6611
(g184
g243
tp6612
g6
g7
tp6613
F920.5373920102193
s((I0
g70
tp6614
(g87
g38
tp6615
g31
g31
tp6616
F7864.196714803709
s((I0
S'11'
p6617
tp6618
(g74
S'13'
p6619
tp6620
g6
g7
tp6621
F186.2266031378803
s((I1
S'15'
p6622
tp6623
(g196
g20
tp6624
g6
g6
tp6625
F-694.948772477737
s((I0
g15
tp6626
(g1376
g15
tp6627
g7
g7
tp6628
F-9324.700446794202
s((I1
S'13'
p6629
tp6630
(g196
g9
tp6631
g7
g6
tp6632
F-57.470206757338275
s((I0
g1
tp6633
(g213
g1
tp6634
g6
g6
tp6635
F-11108.731203595225
s((I1
S'10'
p6636
tp6637
(g28
g70
tp6638
g32
g32
tp6639
F-350.3919237288249
s((I0
g9
tp6640
(g328
g23
tp6641
g6
g7
tp6642
F-337.4703786714592
s((I1
S'10'
p6643
tp6644
(g28
g38
tp6645
g32
g31
tp6646
F423.76677610191706
s(g309
I4
I00
I00
tp6647
F-18082.357992800335
s((I1
g9
tp6648
(g401
S'15'
p6649
tp6650
g6
g7
tp6651
F279.33104856925337
s((I1
g85
tp6652
(g376
g265
tp6653
g32
g31
tp6654
F-238.62504426608388
s((I1
S'11'
p6655
tp6656
(g28
g265
tp6657
g31
g32
tp6658
F454.7392395536757
s((I1
S'16'
p6659
tp6660
(g196
g9
tp6661
g6
g7
tp6662
F310.2881725132245
s((I1
g131
tp6663
(g1854
g174
tp6664
g151
g136
tp6665
F4268.020173251449
s(g1340
I2
I01
I01
tp6666
F75125.4457837705
s((I0
g153
tp6667
(g674
S'11'
p6668
tp6669
g31
g32
tp6670
F487.1993120076936
s((I1
g20
tp6671
(g5610
g23
tp6672
g6
g7
tp6673
F-1029.7473836302056
s((I0
g85
tp6674
(g87
g265
tp6675
g32
g31
tp6676
F24.71285588653046
s((I1
g9
tp6677
(g536
S'11'
p6678
tp6679
g6
g7
tp6680
F1650.4698092085669
s((I0
g178
tp6681
(g100
g29
tp6682
g32
g31
tp6683
F305.3779622591786
s((I1
g9
tp6684
(g1711
g4
tp6685
g7
g6
tp6686
F4986.04249362346
s((I1
g214
tp6687
(g1246
g15
tp6688
g7
g7
tp6689
F13844.372759060225
s((I0
g91
tp6690
(g4549
g257
tp6691
g96
g96
tp6692
F6416.842695727945
s((I0
g265
tp6693
(g100
S'11'
p6694
tp6695
g31
g32
tp6696
F704.3487721849278
s((I0
g85
tp6697
(g87
g153
tp6698
g32
g32
tp6699
F2178.6584670466036
s((I1
g20
tp6700
(g505
S'11'
p6701
tp6702
g7
g7
tp6703
F1242.6343313132784
s((I0
g70
tp6704
(g87
g166
tp6705
g32
g31
tp6706
F-7347.279681622958
s((I1
S'11'
p6707
tp6708
(g28
g68
tp6709
g32
g32
tp6710
F174.33806942011626
s((I0
g85
tp6711
(g40
S'11'
p6712
tp6713
g32
g32
tp6714
F394.6025191251589
s((I0
g29
tp6715
(g100
S'13'
p6716
tp6717
g31
g32
tp6718
F-428.9120183670675
s((I1
S'14'
p6719
tp6720
(g196
g20
tp6721
g7
g7
tp6722
F-148.72634046066992
s((I0
g412
tp6723
(g2212
g556
tp6724
g136
g136
tp6725
F-4227.948641917277
s((I0
g15
tp6726
(g1376
g1
tp6727
g7
g7
tp6728
F-6917.8751411209
s((I0
g9
tp6729
(g3862
g20
tp6730
g7
g6
tp6731
F5066.106631796334
s((I1
g48
tp6732
(g4844
g268
tp6733
g53
g54
tp6734
F7811.137682498885
s((I1
g48
tp6735
(g4879
g51
tp6736
g53
g54
tp6737
F-3517.918965843976
s((I1
S'11'
p6738
tp6739
(g28
g68
tp6740
g31
g32
tp6741
F474.40221796028675
s(g1091
I1
I00
I01
tp6742
F-25020.06890842634
s((I1
g174
tp6743
(g148
g149
tp6744
g136
g136
tp6745
F11282.041011620875
s((I1
g134
tp6746
(g148
g280
tp6747
g136
g136
tp6748
F2949.5437754151026
s((I1
S'14'
p6749
tp6750
(g196
g20
tp6751
g6
g7
tp6752
F404.95398720304047
s((I1
g20
tp6753
(g184
S'14'
p6754
tp6755
g7
g7
tp6756
F-29.422654515155052
s((I1
g149
tp6757
(g567
g146
tp6758
g151
g136
tp6759
F-514.7841142505216
s((I1
g29
tp6760
(g28
g68
tp6761
g31
g31
tp6762
F846.3722732224858
s((I0
g4
tp6763
(g886
g20
tp6764
g7
g6
tp6765
F1184.0005315419335
s((I0
g214
tp6766
(g74
g23
tp6767
g7
g7
tp6768
F-1453.4317681968168
s((I1
S'13'
p6769
tp6770
(g196
g4
tp6771
g7
g7
tp6772
F522.8480985183098
s((I0
g265
tp6773
(g100
g166
tp6774
g31
g31
tp6775
F-290.7265877961103
s((I0
g320
tp6776
(g74
S'14'
p6777
tp6778
g7
g6
tp6779
F37.86948811915704
s((I0
g4
tp6780
(g213
g9
tp6781
g7
g6
tp6782
F-1609.2071005906942
s((I1
g9
tp6783
(g1522
g1
tp6784
g6
g7
tp6785
F-3938.664817532989
s((I0
g85
tp6786
(g87
g178
tp6787
g32
g31
tp6788
F-1207.7584683860669
s((I1
g307
tp6789
(g1715
g696
tp6790
g313
g313
tp6791
F-412.79081225912046
s((I1
S'10'
p6792
tp6793
(g28
g70
tp6794
g31
g31
tp6795
F287.37627696643347
s((I0
g70
tp6796
(g1461
g178
tp6797
g31
g31
tp6798
F-1231.9957857069764
s((I0
g91
tp6799
(g6472
g257
tp6800
g96
g97
tp6801
F274.51953943326
s((I1
g20
tp6802
(g2165
S'10'
p6803
tp6804
g7
g6
tp6805
F793.6019971324552
s((I0
g214
tp6806
(g193
g20
tp6807
g6
g6
tp6808
F10102.322605556088
s((I1
S'14'
p6809
tp6810
(g196
S'11'
p6811
tp6812
g6
g6
tp6813
F9.059376214430852
s((I0
g1
tp6814
(g61
g20
tp6815
g7
g6
tp6816
F-14381.865975833945
s((I1
g146
tp6817
(g148
g412
tp6818
g136
g151
tp6819
F472.8077850076438
s((I0
g1023
tp6820
(g1187
g1020
tp6821
g1189
g1025
tp6822
F-106.87073184708716
s((I0
g85
tp6823
(g87
S'10'
p6824
tp6825
g31
g31
tp6826
F-466.2026388211332
s((I0
g153
tp6827
(g5017
g68
tp6828
g31
g31
tp6829
F-4077.1197288569283
s((I1
g153
tp6830
(g155
g265
tp6831
g31
g31
tp6832
F437.42848463069697
s((I1
S'10'
p6833
tp6834
(g28
g265
tp6835
g31
g31
tp6836
F24.08514871930512
s((I1
g9
tp6837
(g401
S'15'
p6838
tp6839
g7
g7
tp6840
F239.64119596388602
s((I0
g131
tp6841
(g6398
g146
tp6842
g136
g151
tp6843
F-853.9884861649012
s((I1
g1
tp6844
(g57
g4
tp6845
g7
g7
tp6846
F1419.5963587819847
s((I0
g174
tp6847
(g594
g174
tp6848
g136
g136
tp6849
F-1081.6704631526554
s((I1
g91
tp6850
(g3276
g94
tp6851
g97
g97
tp6852
F-583.3188805155216
s((I0
g153
tp6853
(g5480
S'10'
p6854
tp6855
g31
g32
tp6856
F1158.9900556168272
s((I1
g9
tp6857
(g11
S'14'
p6858
tp6859
g7
g6
tp6860
F1126.7578655395641
s((I0
g29
tp6861
(g100
S'12'
p6862
tp6863
g32
g31
tp6864
F-551.4414490781795
s((I1
S'15'
p6865
tp6866
(g196
g9
tp6867
g7
g6
tp6868
F-238.55572658439428
s((I1
g85
tp6869
(g376
g265
tp6870
g32
g32
tp6871
F-845.514775378774
s((I1
S'10'
p6872
tp6873
(g28
g265
tp6874
g31
g32
tp6875
F1101.082197760614
s((I0
g320
tp6876
(g74
S'14'
p6877
tp6878
g6
g6
tp6879
F1050.6310330770507
s((I1
g9
tp6880
(g1526
g20
tp6881
g6
g7
tp6882
F-17939.158406842893
s((I1
S'12'
p6883
tp6884
(g28
g166
tp6885
g32
g31
tp6886
F350.3477585376889
s((I0
g91
tp6887
(g862
g91
tp6888
g96
g96
tp6889
F36617.81167678824
s((I0
g15
tp6890
(g213
S'10'
p6891
tp6892
g7
g7
tp6893
F-2993.057016061068
s((I0
g131
tp6894
(g1103
g556
tp6895
g136
g136
tp6896
F9329.545384296844
s((I0
g865
tp6897
(g867
g868
tp6898
g870
g870
tp6899
F-4194.599615602489
s((I0
g131
tp6900
(g555
g412
tp6901
g151
g151
tp6902
F-36524.57511402206
s((I1
g214
tp6903
(g57
g15
tp6904
g6
g7
tp6905
F822.9110894986433
s((I0
g20
tp6906
(g228
g9
tp6907
g7
g6
tp6908
F7527.449188154205
s((I1
g134
tp6909
(g447
S'10'
p6910
tp6911
g136
g136
tp6912
F1019.9189936021023
s((I1
g9
tp6913
(g3135
g23
tp6914
g7
g7
tp6915
F305.6690898946083
s((I0
g85
tp6916
(g87
g29
tp6917
g31
g31
tp6918
F-431.1253793906596
s((I0
g23
tp6919
(g74
g9
tp6920
g7
g7
tp6921
F-1380.6631925475424
s((I0
g9
tp6922
(g328
g243
tp6923
g6
g6
tp6924
F-296.8646877939008
s((I0
g9
tp6925
(g82
g1
tp6926
g6
g6
tp6927
F-6706.243050099549
s((I1
g29
tp6928
(g28
g178
tp6929
g32
g32
tp6930
F-360.31014855976144
s((I1
g1
tp6931
(g3
g4
tp6932
g7
g6
tp6933
F704.7427711093972
s((I1
g298
tp6934
(g1037
g904
tp6935
g607
g302
tp6936
F17592.55831623937
s((I1
g1
tp6937
(g57
g243
tp6938
g7
g6
tp6939
F475.6032915916819
s((I1
g214
tp6940
(g57
g4
tp6941
g7
g7
tp6942
F924.8955545686285
s((I1
g38
tp6943
(g376
g29
tp6944
g31
g32
tp6945
F303.2808779427648
s((I1
S'12'
p6946
tp6947
(g196
S'13'
p6948
tp6949
g6
g7
tp6950
F-432.9010375098636
s((I0
g15
tp6951
(g213
S'10'
p6952
tp6953
g6
g7
tp6954
F-1266.3637374396653
s((I1
g85
tp6955
(g427
g153
tp6956
g31
g31
tp6957
F19257.366026536816
s((I0
g70
tp6958
(g87
g265
tp6959
g31
g31
tp6960
F-316.58262910251426
s((I1
S'12'
p6961
tp6962
(g196
g9
tp6963
g6
g7
tp6964
F-123.31689748751475
s((I1
g214
tp6965
(g57
g20
tp6966
g6
g7
tp6967
F-3780.3088619111813
s((I1
g29
tp6968
(g28
g85
tp6969
g32
g32
tp6970
F-1910.1275933421473
s((I0
g4
tp6971
(g193
g9
tp6972
g6
g7
tp6973
F497.2429149033103
s((I1
g166
tp6974
(g1448
g68
tp6975
g32
g31
tp6976
F-534.2015018189932
s((I1
g20
tp6977
(g45
g320
tp6978
g6
g7
tp6979
F1593.5269299998693
s(g1043
I3
I00
I01
tp6980
F-37917.47788860421
s((I1
S'10'
p6981
tp6982
(g28
g265
tp6983
g32
g31
tp6984
F-908.3998037423071
s((I1
g15
tp6985
(g17
g4
tp6986
g7
g6
tp6987
F6397.216077515923
s((I1
g1
tp6988
(g57
g214
tp6989
g6
g7
tp6990
F-228.67827877255917
s((I0
g94
tp6991
(g1043
g91
tp6992
g96
g97
tp6993
F28182.282457335477
s((I0
g9
tp6994
(g228
S'16'
p6995
tp6996
g6
g6
tp6997
F137.6733653060148
s((I1
S'12'
p6998
tp6999
(g196
g20
tp7000
g7
g6
tp7001
F85.67493654788657
s.