(dp0
(S'blocked 3'
p1
I4
I00
I01
tp2
F28513.261590760987
s(S'blocked 3'
p3
I2
I01
I01
tp4
F-1196.0843730711676
s(S'blocked 4'
p5
I1
I00
I01
tp6
F-170674.88793264623
s(S'blocked 2'
p7
I1
I01
I00
tp8
F-17868.35308829927
s(S'blocked 2'
p9
I6
I00
I00
tp10
F24992.895370045582
s(S'open 2'
p11
I2
I01
I01
tp12
F24738.730706668117
s(S'open 2'
p13
I1
I00
I00
tp14
F-48977.03414419756
s(g7
I1
I00
I00
tp15
F30548.559733808168
s(S'blocked 2'
p16
I6
I01
I00
tp17
F6072.100518122561
s(g13
I1
I01
I00
tp18
F9328.249400177894
s(S'open 4'
p19
I1
I00
I01
tp20
F-156042.24333008347
s(g3
I2
I00
I01
tp21
F15007.784766988147
s(S'blocked 3'
p22
I3
I01
I01
tp23
F-3169.264258312256
s(g3
I1
I00
I01
tp24
F1480.369173998064
s(S'blocked 2'
p25
I3
I00
I01
tp26
F-36477.55842225128
s(S'blocked 2'
p27
I7
I00
I01
tp28
F37402.163162438184
s(S'open 2'
p29
I4
I00
I01
tp30
F-119008.17261711552
s(S'blocked 2'
p31
I5
I01
I01
tp32
F-113162.84820098794
s(S'open 2'
p33
I3
I01
I01
tp34
F-77459.24438743036
s(g11
I2
I01
I00
tp35
F-15403.27814075901
s(g33
I3
I01
I00
tp36
F-45572.87252672223
s(S'open 3'
p37
I1
I01
I00
tp38
F97201.98969111084
s(S'blocked 2'
p39
I2
I01
I00
tp40
F-73443.47964249656
s(S'open 2'
p41
I5
I01
I00
tp42
F-77387.81808295859
s(g1
I4
I01
I00
tp43
F105811.06734529434
s(g37
I1
I00
I00
tp44
F-122495.36290458732
s(S'open 3'
p45
I2
I01
I01
tp46
F52749.72701169006
s(g5
I1
I01
I00
tp47
F178180.45184897236
s(g39
I2
I00
I00
tp48
F-77860.82548634644
s(g5
I1
I00
I00
tp49
F-169861.15676680754
s(S'blocked 2'
p50
I4
I01
I01
tp51
F-39769.72395769201
s(g7
I1
I01
I01
tp52
F-35681.3180422998
s(g16
I6
I00
I01
tp53
F16520.037325394125
s(g13
I1
I00
I01
tp54
F-8077.204968237505
s(g1
I5
I00
I00
tp55
F-12176.379532744606
s(g22
I3
I00
I00
tp56
F-93555.6671435232
s(g11
I2
I00
I01
tp57
F8573.461305365607
s(g29
I4
I01
I00
tp58
F-67852.81095356314
s(g1
I3
I01
I00
tp59
F-27083.607213901247
s(g33
I3
I00
I00
tp60
F-93481.14499147494
s(g25
I3
I00
I00
tp61
F18840.984348045447
s(S'open 2'
p62
I4
I00
I00
tp63
F37457.78895156551
s(g19
I1
I01
I01
tp64
F177341.21545451408
s(g39
I2
I00
I01
tp65
F-223668.2135965054
s(g41
I5
I00
I01
tp66
F-7552.245871762643
s(g37
I1
I01
I01
tp67
F126009.01509268905
s(g45
I2
I00
I00
tp68
F-120340.23586050262
s(g31
I5
I00
I00
tp69
F-103675.35689650751
s(g3
I1
I01
I01
tp70
F54469.23071305249
s(g1
I4
I01
I01
tp71
F-28335.046668616396
s(g31
I5
I00
I01
tp72
F-49484.74594418712
s(S'open 3'
p73
I2
I01
I00
tp74
F68247.34238516924
s(g5
I1
I01
I01
tp75
F167863.1104501741
s(g50
I4
I00
I00
tp76
F139682.02956990607
s(g33
I3
I00
I01
tp77
F-2248.4440172844934
s(g50
I4
I01
I00
tp78
F-14099.010919172959
s(g3
I2
I01
I00
tp79
F-45218.06705358245
s(g3
I2
I00
I00
tp80
F-74719.58284967557
s(g1
I5
I01
I01
tp81
F49405.116920303546
s(g7
I1
I00
I01
tp82
F5628.788047574222
s(g1
I3
I00
I01
tp83
F112536.56202668372
s(g9
I6
I01
I01
tp84
F28405.509158195004
s(g11
I2
I00
I00
tp85
F-25799.05168788541
s(g13
I1
I01
I01
tp86
F47916.574839078654
s(g62
I4
I01
I01
tp87
F9729.613949284016
s(g19
I1
I00
I00
tp88
F-152109.4292503834
s(g25
I3
I01
I00
tp89
F-9384.591074326334
s(g19
I1
I01
I00
tp90
F179548.5523699352
s(g3
I1
I00
I00
tp91
F-46459.445248506294
s(g27
I7
I01
I00
tp92
F-31687.149081008753
s(g31
I5
I01
I00
tp93
F-63158.13761715725
s(g73
I2
I00
I01
tp94
F-74556.36829292249
s(g3
I1
I01
I00
tp95
F7966.757940445055
s(g1
I4
I00
I00
tp96
F-5157.5863427547665
s(g39
I2
I01
I01
tp97
F-65133.15755469312
s(g25
I3
I01
I01
tp98
F-19273.588200696606
s(g50
I4
I00
I01
tp99
F85001.02330908252
s(g37
I1
I00
I01
tp100
F-83303.13178196808
s.