(dp0
S'closed 5'
p1
I0
sS'blocked 3'
p2
I0
sS'blocked 2'
p3
I0
sS'blocked 4'
p4
I0
s(I1
S'open 2'
p5
tp6
F300000.0
s(I1
S'open 3'
p7
tp8
F0.0
sS'open 4'
p9
I0
sS'open 5'
p10
I0
sS'open 2'
p11
I0
sS'open 3'
p12
I0
s(I0
S'open 2'
p13
tp14
F100000.0
s(I1
S'blocked 2'
p15
tp16
F0.0
s(I1
S'open 4'
p17
tp18
F0.0
s(I0
S'blocked 2'
p19
tp20
F0.0
s(I1
S'open 5'
p21
tp22
F0.0
s.