(dp0
(S'blocked 2'
p1
I1
I01
I00
tp2
F3348.6113485773117
s(S'blocked 2'
p3
I6
I00
I00
tp4
F2442.2610937578074
s(S'blocked 3'
p5
I5
I01
I00
tp6
F772.9037806288416
s(S'blocked 4'
p7
I1
I00
I00
tp8
F-95289.69240103652
s(S'open 3'
p9
I3
I01
I01
tp10
F3771.8668942057307
s(g1
I3
I00
I01
tp11
F-4107.818225488214
s(g7
I1
I00
I01
tp12
F-32180.81576138766
s(S'blocked 2'
p13
I8
I01
I01
tp14
F-1147.1376745384052
s(S'blocked 2'
p15
I5
I01
I01
tp16
F-2957.0313905151675
s(S'blocked 2'
p17
I10
I00
I01
tp18
F-1236.4862185202956
s(S'open 2'
p19
I5
I00
I00
tp20
F-17354.95517713854
s(S'blocked 3'
p21
I4
I01
I00
tp22
F13548.275688280415
s(S'open 3'
p23
I1
I00
I00
tp24
F-30898.051840659908
s(S'blocked 2'
p25
I7
I00
I00
tp26
F7662.315043344103
s(S'blocked 4'
p27
I2
I01
I01
tp28
F9900.60511316761
s(S'blocked 2'
p29
I12
I01
I00
tp30
F845.6126987647281
s(S'open 2'
p31
I1
I00
I01
tp32
F-7081.178561041426
s(S'blocked 3'
p33
I2
I00
I01
tp34
F-10609.1086968195
s(g19
I4
I00
I00
tp35
F-3612.805675473573
s(S'open 2'
p36
I3
I01
I00
tp37
F-2059.3462390306754
s(g23
I2
I00
I00
tp38
F-51061.08898340418
s(S'blocked 2'
p39
I4
I00
I00
tp40
F4407.589468529339
s(S'blocked 3'
p41
I7
I01
I00
tp42
F-1362.4427249094474
s(g36
I2
I01
I00
tp43
F14772.608164234032
s(g1
I1
I00
I01
tp44
F-2618.3632206073216
s(g3
I6
I01
I01
tp45
F1529.3175055968563
s(g1
I3
I01
I01
tp46
F-1674.3869566665771
s(g13
I8
I00
I01
tp47
F6960.849249673641
s(g41
I6
I01
I00
tp48
F1355.938662053008
s(g9
I3
I00
I00
tp49
F-3519.4939514384023
s(g33
I1
I00
I00
tp50
F4295.929256858824
s(g15
I5
I00
I00
tp51
F3591.8195161770304
s(g17
I10
I01
I00
tp52
F944.6369811742364
s(g19
I5
I01
I01
tp53
F22768.358729883836
s(g27
I2
I00
I01
tp54
F-2227.5398236249207
s(S'open 2'
p55
I7
I00
I01
tp56
F904.1102964818828
s(g21
I4
I00
I01
tp57
F-15160.359115874435
s(g33
I2
I01
I01
tp58
F11225.58988453274
s(g31
I1
I01
I00
tp59
F7698.725395853708
s(g17
I11
I01
I00
tp60
F4190.438252700099
s(g39
I2
I00
I00
tp61
F-2209.492998738853
s(g23
I2
I01
I01
tp62
F50839.72450863525
s(g7
I1
I01
I00
tp63
F29708.23458822283
s(g39
I4
I01
I01
tp64
F-5492.162459313477
s(g39
I1
I01
I01
tp65
F-4020.3992258884678
s(g3
I6
I00
I01
tp66
F-8299.29528995916
s(S'blocked 3'
p67
I3
I00
I00
tp68
F-24256.092540950376
s(g36
I2
I00
I01
tp69
F-8132.239505235968
s(g1
I3
I00
I00
tp70
F-2457.848395249796
s(g13
I8
I01
I00
tp71
F-6105.443044035175
s(g19
I5
I00
I01
tp72
F-7320.50268403162
s(g41
I6
I00
I01
tp73
F-1384.9639298751526
s(g33
I1
I01
I01
tp74
F-5199.979042459705
s(g21
I4
I01
I01
tp75
F20598.64845085637
s(g27
I2
I01
I00
tp76
F2867.0137612087265
s(g55
I7
I01
I00
tp77
F-1067.5811657769123
s(g17
I9
I01
I00
tp78
F2404.5509542872373
s(g33
I2
I00
I00
tp79
F-13219.44468224211
s(S'open 4'
p80
I1
I00
I00
tp81
F-130392.71328502259
s(g9
I4
I01
I01
tp82
F-1454.498826639638
s(g23
I2
I00
I01
tp83
F-6854.287022592756
s(g19
I6
I01
I00
tp84
F-4831.282388723237
s(g39
I2
I01
I01
tp85
F6125.857513453007
s(g39
I4
I00
I01
tp86
F2605.60659294166
s(g21
I5
I00
I00
tp87
F-4326.963630790727
s(g36
I2
I01
I01
tp88
F11025.599091510543
s(g39
I1
I00
I00
tp89
F4250.906158944173
s(g3
I6
I01
I00
tp90
F9672.14037960713
s(g67
I3
I01
I01
tp91
F26599.67193446252
s(S'blocked 3'
p92
I6
I01
I01
tp93
F4618.4509834255105
s(g33
I1
I00
I01
tp94
F10619.786929471495
s(g23
I1
I01
I00
tp95
F12981.978903962063
s(g19
I5
I01
I00
tp96
F8303.485531630502
s(g25
I7
I01
I00
tp97
F-10358.684695587774
s(g21
I4
I00
I00
tp98
F-23163.927953418628
s(g17
I12
I00
I00
tp99
F2713.0983678507882
s(g17
I9
I00
I01
tp100
F-2469.43192857713
s(g9
I4
I00
I01
tp101
F-918.1118447475654
s(S'open 2'
p102
I4
I01
I00
tp103
F-795.5669793448003
s(S'open 2'
p104
I3
I00
I00
tp105
F-6696.524846718767
s(g80
I1
I01
I01
tp106
F123076.16301941933
s(g1
I2
I00
I01
tp107
F20291.296803222165
s(g41
I7
I00
I00
tp108
F-4192.4581655275115
s(g23
I2
I01
I00
tp109
F2638.8242065450645
s(g19
I6
I00
I01
tp110
F5561.533491935853
s(g7
I1
I01
I01
tp111
F91654.17499361318
s(g39
I4
I01
I00
tp112
F-5606.1528406464595
s(g21
I5
I01
I01
tp113
F6537.364795066034
s(S'blocked 3'
p114
I8
I01
I01
tp115
F632.7208139401514
s(g67
I3
I00
I01
tp116
F-32232.678831088055
s(g36
I2
I00
I00
tp117
F-7366.7289923654635
s(g9
I3
I01
I00
tp118
F2523.9013709762203
s(g17
I11
I01
I01
tp119
F2876.5812032975978
s(g39
I5
I01
I00
tp120
F-5132.081932307407
s(g92
I6
I00
I00
tp121
F-4805.479077913948
s(g17
I10
I00
I00
tp122
F-706.0774419757334
s(g33
I1
I01
I00
tp123
F-5599.495553275367
s(g9
I4
I00
I00
tp124
F1097.883474420828
s(g23
I1
I00
I01
tp125
F-10100.950368466281
s(g25
I7
I00
I01
tp126
F7947.885071659076
s(g17
I12
I01
I01
tp127
F-2352.13405110871
s(g17
I9
I01
I01
tp128
F5353.908029179874
s(g31
I1
I00
I00
tp129
F-5451.260329943803
s(g80
I1
I00
I01
tp130
F-117294.90570075529
s(g9
I4
I01
I00
tp131
F749.13081563471
s(g17
I11
I00
I00
tp132
F-2710.2868751175356
s(g102
I4
I00
I01
tp133
F109.07642235381809
s(g104
I3
I01
I01
tp134
F9871.49192121021
s(S'open 2'
p135
I6
I01
I01
tp136
F-677.6173372520778
s(g17
I11
I00
I01
tp137
F-6320.801571773055
s(g41
I7
I01
I01
tp138
F4492.575369217641
s(g5
I5
I00
I01
tp139
F-1484.0317273069686
s(g1
I3
I01
I00
tp140
F-248.32097268346203
s(g114
I8
I00
I00
tp141
F-745.4128721089982
s(g13
I8
I00
I00
tp142
F175.72518916217132
s(g67
I3
I01
I00
tp143
F28433.360817134664
s(g9
I3
I00
I01
tp144
F-2518.431814995009
s(g1
I2
I01
I00
tp145
F-23104.596657153317
s(g23
I1
I01
I01
tp146
F46220.31312440816
s(g39
I5
I00
I01
tp147
F7040.2262932242575
s(g17
I10
I01
I01
tp148
F1189.12551565356
s(g25
I7
I01
I01
tp149
F-4612.154598325797
s(g27
I2
I00
I00
tp150
F-9880.966366815495
s(g29
I12
I00
I01
tp151
F-948.1984286182513
s(g33
I2
I01
I00
tp152
F10196.73495653597
s(g17
I9
I00
I00
tp153
F-3274.902347704134
s(g31
I1
I01
I01
tp154
F10464.351486742939
s(g19
I4
I01
I01
tp155
F6219.051651831038
s(g36
I3
I00
I01
tp156
F2360.2005268597754
s(g80
I1
I01
I00
tp157
F106115.01977711213
s(g41
I7
I00
I01
tp158
F1920.0271437425915
s(g135
I6
I00
I00
tp159
F655.7776587448325
s.