(dp0
((I0
S'5'
p1
tp2
(S'blocked 2'
p3
S'1'
p4
tp5
S'True'
p6
S'False'
p7
tp8
F8736.540819472244
s((I0
S'4'
p9
tp10
(g3
g9
tp11
g7
g6
tp12
F2176.2177808196925
s((I1
S'3'
p13
tp14
(S'open 2'
p15
S'4'
p16
tp17
S'True'
p18
S'False'
p19
tp20
F7918.585208236409
s((I0
S'2'
p21
tp22
(S'blocked 2'
p23
S'1'
p24
tp25
S'False'
p26
S'True'
p27
tp28
F14895.205060785453
s((I0
g24
tp29
(S'blocked 4'
p30
g24
tp31
g27
g27
tp32
F102739.48779039407
s((I0
S'6'
p33
tp34
(S'blocked 2'
p35
S'5'
p36
tp37
S'False'
p38
g38
tp39
F-1493.7846799471822
s((I0
S'3'
p40
tp41
(S'open 2'
p42
S'2'
p43
tp44
S'False'
p45
S'True'
p46
tp47
F14369.427982098156
s((I0
S'7'
p48
tp49
(g3
g4
tp50
g7
g7
tp51
F-2485.021788641939
s((I0
S'1'
p52
tp53
(S'open 4'
p54
g52
tp55
g45
g46
tp56
F3665.929462146969
s(S'blocked 2'
p57
I10
I00
I01
tp58
F1412.9674115969478
s((I1
g4
tp59
(S'blocked 3'
p60
g9
tp61
g7
g7
tp62
F4793.149973366819
s((I1
S'6'
p63
tp64
(S'blocked 2'
p65
S'3'
p66
tp67
g6
g7
tp68
F8229.631009138138
s((I1
g9
tp69
(S'blocked 2'
p70
g48
tp71
g6
g6
tp72
F8605.267927875577
s((I0
g4
tp73
(S'blocked 2'
p74
g63
tp75
g7
g7
tp76
F4474.943815815331
s(S'open 3'
p77
I1
I00
I00
tp78
F-33095.032134519126
s((I1
g52
tp79
(S'open 4'
p80
g40
tp81
g46
g46
tp82
F1253.4275075580304
s((I0
S'1'
p83
tp84
(S'blocked 3'
p85
S'8'
p86
tp87
S'True'
p88
S'False'
p89
tp90
F538.1632934452549
s((I1
g9
tp91
(g70
g63
tp92
g6
g7
tp93
F-889.8082857143829
s((I1
g66
tp94
(g70
S'2'
p95
tp96
g6
g7
tp97
F-4591.301795684448
s((I1
g66
tp98
(g60
g48
tp99
g7
g7
tp100
F1862.3756336749689
s((I1
g95
tp101
(g60
g63
tp102
g6
g7
tp103
F-1622.8038227951765
s((I0
g48
tp104
(g3
g1
tp105
g7
g7
tp106
F-1427.66292330343
s((I1
g52
tp107
(S'blocked 4'
p108
g40
tp109
g45
g46
tp110
F-22767.27599261984
s((I1
g43
tp111
(S'blocked 3'
p112
g43
tp113
g45
g46
tp114
F-7065.151691498255
s((I1
g4
tp115
(S'open 4'
p116
S'8'
p117
tp118
g6
g7
tp119
F-2204.998496184335
s((I0
S'1'
p120
tp121
(S'open 2'
p122
g120
tp123
S'True'
p124
g124
tp125
F6817.919964129016
s((I1
g117
tp126
(S'blocked 2'
p127
S'9'
p128
tp129
g6
g6
tp130
F-853.1196214032598
s((I0
g95
tp131
(S'blocked 2'
p132
g1
tp133
g6
g7
tp134
F-2471.9355826911537
s(S'open 2'
p135
I4
I00
I00
tp136
F-6913.892715292868
s((I1
S'4'
p137
tp138
(S'blocked 2'
p139
g24
tp140
g26
g26
tp141
F-3900.195847384942
s((I0
S'4'
p142
tp143
(S'blocked 2'
p144
S'3'
p145
tp146
S'False'
p147
S'True'
p148
tp149
F-559.0590183130446
s((I1
g4
tp150
(S'blocked 3'
p151
g117
tp152
g7
g7
tp153
F180.46635239659918
s((I0
S'1'
p154
tp155
(S'blocked 4'
p156
g36
tp157
S'True'
p158
g38
tp159
F5910.975706599119
s((I0
g48
tp160
(S'blocked 2'
p161
g48
tp162
g6
g6
tp163
F191.12242792680337
s((I0
g36
tp164
(g35
g36
tp165
g158
g158
tp166
F1000.024269351207
s((I0
S'1'
p167
tp168
(S'blocked 2'
p169
S'7'
p170
tp171
S'False'
p172
g172
tp173
F-398.6869002915266
s((I1
g4
tp174
(S'open 2'
p175
g1
tp176
g6
g7
tp177
F4286.828271060272
s(S'blocked 3'
p178
I3
I00
I01
tp179
F-4315.69317343548
s((I1
g4
tp180
(S'open 3'
p181
g9
tp182
g7
g6
tp183
F2921.3753222639416
s((I0
S'3'
p184
tp185
(S'blocked 2'
p186
S'1'
p187
tp188
S'False'
p189
S'True'
p190
tp191
F3840.1228984295367
s((I0
S'6'
p192
tp193
(S'blocked 2'
p194
S'4'
p195
tp196
S'True'
p197
S'False'
p198
tp199
F1282.5088720579872
s((I1
g145
tp200
(S'open 2'
p201
S'2'
p202
tp203
g147
g147
tp204
F-10353.677547497862
s((I1
g24
tp205
(S'open 4'
p206
S'3'
p207
tp208
g26
g27
tp209
F-6199.395369160707
s((I0
g4
tp210
(S'open 3'
p211
g9
tp212
g7
g7
tp213
F2581.9560315796057
s(g122
I2
I01
I00
tp214
F1051.421441188857
s((I1
g24
tp215
(S'open 2'
p216
g207
tp217
g27
g27
tp218
F-5139.17225467607
s((I0
g66
tp219
(g161
g9
tp220
g6
g7
tp221
F-7064.165453257558
s((I1
g128
tp222
(g127
g95
tp223
g7
g6
tp224
F-842.5940592710892
s((I1
g120
tp225
(S'blocked 2'
p226
g120
tp227
S'False'
p228
g228
tp229
F-2254.968222171992
s((I0
S'1'
p230
tp231
(S'blocked 4'
p232
g142
tp233
g148
g148
tp234
F2187.7527373465427
s((I1
g43
tp235
(S'open 2'
p236
g43
tp237
g45
g45
tp238
F3686.1916814323677
s((I1
g43
tp239
(g112
g43
tp240
g46
g46
tp241
F12895.388061584337
s((I1
S'1'
p242
tp243
(S'blocked 4'
p244
S'9'
p245
tp246
g198
g197
tp247
F-1310.941476714406
s((I1
g4
tp248
(S'open 3'
p249
g48
tp250
g6
g6
tp251
F901.3212010096729
s((I0
g9
tp252
(S'blocked 2'
p253
g4
tp254
g6
g6
tp255
F-7695.2293954331635
s((I0
S'3'
p256
tp257
(S'open 2'
p258
g195
tp259
g197
g198
tp260
F-1098.2630254130145
s((I0
g230
tp261
(S'open 3'
p262
g145
tp263
g148
g147
tp264
F3484.8982209405526
s((I0
g230
tp265
(g232
g202
tp266
g148
g148
tp267
F10725.312207904739
s(g70
I5
I00
I00
tp268
F-3747.7403066542483
s((I1
g4
tp269
(S'open 4'
p270
g48
tp271
g7
g6
tp272
F379.08817016465764
s((I1
g36
tp273
(S'blocked 2'
p274
g33
tp275
g38
g158
tp276
F1727.346622081049
s((I0
g256
tp277
(S'open 2'
p278
g192
tp279
g197
g197
tp280
F246.69927809333763
s((I0
g95
tp281
(S'blocked 2'
p282
g66
tp283
g7
g6
tp284
F2611.622620232367
s((I0
g24
tp285
(S'open 3'
p286
g24
tp287
g26
g27
tp288
F-723.9256077112663
s((I1
g48
tp289
(g127
g48
tp290
g6
g6
tp291
F214.65092952030002
s(S'blocked 3'
p292
I2
I01
I01
tp293
F44374.52703764403
s((I0
g4
tp294
(S'open 4'
p295
g9
tp296
g7
g7
tp297
F-165.3750224569792
s((I1
g95
tp298
(g60
g63
tp299
g7
g6
tp300
F2529.9182229844528
s((I1
g24
tp301
(S'open 3'
p302
g207
tp303
g26
g26
tp304
F-13111.621941800928
s((I1
g63
tp305
(g65
g66
tp306
g7
g7
tp307
F-5475.600250574924
s((I1
g9
tp308
(g70
g9
tp309
g6
g6
tp310
F936.7903964618441
s((I0
g13
tp311
(S'blocked 3'
p312
S'1'
p313
tp314
g18
g19
tp315
F-661.9191107366914
s(g122
I1
I01
I00
tp316
F7002.38435399146
s((I1
g1
tp317
(g70
g95
tp318
g6
g6
tp319
F1983.6891491284819
s((I1
S'2'
p320
tp321
(S'blocked 2'
p322
S'5'
p323
tp324
S'True'
p325
S'False'
p326
tp327
F2742.7359593920282
s((I1
g24
tp328
(g216
g137
tp329
g26
g26
tp330
F1406.2136968387238
s((I0
g24
tp331
(S'open 2'
p332
g137
tp333
g27
g27
tp334
F-5526.988473555178
s((I1
g48
tp335
(g127
g117
tp336
g7
g7
tp337
F-273.17753398149625
s((I1
g9
tp338
(g70
g1
tp339
g7
g7
tp340
F3925.1860551441587
s((I0
g95
tp341
(S'open 2'
p342
g48
tp343
g6
g7
tp344
F-726.3137661996282
s((I0
g120
tp345
(g122
g120
tp346
g124
g228
tp347
F-18925.80380172224
s((I1
g202
tp348
(S'open 3'
p349
g230
tp350
g147
g147
tp351
F-4946.621511283162
s((I1
g242
tp352
(S'open 2'
p353
S'10'
p354
tp355
g198
g197
tp356
F1094.35271962917
s((I1
S'1'
p357
tp358
(S'open 4'
p359
g357
tp360
S'True'
p361
S'False'
p362
tp363
F12846.560964773762
s(S'blocked 2'
p364
I6
I00
I01
tp365
F1527.4708827848904
s((I0
g66
tp366
(g3
g66
tp367
g7
g7
tp368
F935.118626837711
s((I0
g13
tp369
(g312
S'2'
p370
tp371
g18
g19
tp372
F-301.6043979563349
s((I0
g95
tp373
(g282
g66
tp374
g6
g6
tp375
F2896.2748815207106
s((I1
g40
tp376
(g112
g40
tp377
g46
g46
tp378
F4598.4496047051425
s((I1
g66
tp379
(S'blocked 3'
p380
g95
tp381
g6
g6
tp382
F-1954.4348299626458
s((I0
g63
tp383
(g253
g63
tp384
g7
g7
tp385
F-5012.7408205085
s((I1
g66
tp386
(g70
g48
tp387
g7
g6
tp388
F32.50282307275411
s((I0
g4
tp389
(g211
g9
tp390
g6
g6
tp391
F-1747.4728886559146
s((I1
g4
tp392
(g151
g128
tp393
g6
g7
tp394
F-3088.111785042727
s((I0
g95
tp395
(S'open 2'
p396
g63
tp397
g6
g6
tp398
F2485.3204603056774
s(g161
I8
I01
I00
tp399
F315.97211180942304
s((I1
g95
tp400
(S'open 2'
p401
g128
tp402
g7
g7
tp403
F21.476074847607094
s((I1
g245
tp404
(g57
g195
tp405
g197
g198
tp406
F80.84333720133773
s((I0
g95
tp407
(g396
g63
tp408
g6
g7
tp409
F-1709.0939346367852
s((I1
g40
tp410
(S'open 2'
p411
g52
tp412
g45
g45
tp413
F-23410.00304012186
s((I0
g95
tp414
(S'blocked 3'
p415
g95
tp416
g7
g6
tp417
F-1843.087038415081
s((I1
S'5'
p418
tp419
(S'blocked 3'
p420
S'3'
p421
tp422
g89
g89
tp423
F-5974.846538113434
s((I1
g187
tp424
(S'blocked 2'
p425
g184
tp426
g190
g190
tp427
F4496.008573293477
s((I0
S'4'
p428
tp429
(g42
g52
tp430
g45
g46
tp431
F9305.486337334889
s((I0
g66
tp432
(g132
g63
tp433
g6
g6
tp434
F-26.954054416242798
s((I1
g120
tp435
(g226
g120
tp436
g228
g124
tp437
F-19441.799211148675
s((I0
g66
tp438
(g3
g4
tp439
g7
g7
tp440
F1639.3356785580436
s((I0
g323
tp441
(S'open 2'
p442
S'1'
p443
tp444
g325
g326
tp445
F-1330.3331297347759
s((I0
g9
tp446
(g253
g63
tp447
g6
g6
tp448
F1678.120313102994
s((I1
g13
tp449
(g15
g16
tp450
g19
g19
tp451
F-5041.219654567361
s((I1
S'3'
p452
tp453
(S'open 2'
p454
g320
tp455
g326
g325
tp456
F-11213.587694063315
s((I1
g4
tp457
(S'blocked 4'
p458
g63
tp459
g7
g6
tp460
F2534.4852497771276
s((I1
g43
tp461
(g112
g40
tp462
g46
g46
tp463
F3716.472958511892
s((I1
g16
tp464
(S'blocked 3'
p465
g16
tp466
g18
g18
tp467
F561.1864048267156
s((I1
g43
tp468
(S'open 3'
p469
g43
tp470
g46
g45
tp471
F-2385.2739497858065
s((I1
g145
tp472
(S'blocked 2'
p473
g142
tp474
g148
g148
tp475
F-784.6714831794292
s((I0
g83
tp476
(S'blocked 3'
p477
S'7'
p478
tp479
g88
g88
tp480
F3496.187116516441
s((I0
g52
tp481
(S'open 3'
p482
g43
tp483
g46
g45
tp484
F316.4276516953032
s((I1
g9
tp485
(g70
g66
tp486
g6
g6
tp487
F1290.472522742015
s(g359
I1
I00
I00
tp488
F-102312.25858416906
s((I1
g66
tp489
(g127
g66
tp490
g6
g6
tp491
F839.6402637791255
s((I1
g48
tp492
(g364
g4
tp493
g6
g7
tp494
F6275.189518723425
s((I1
g16
tp495
(g15
g370
tp496
g19
g18
tp497
F520.8169517819614
s((I0
g187
tp498
(g186
S'2'
p499
tp500
g190
g189
tp501
F-3834.082770145216
s((I1
g120
tp502
(g292
S'2'
p503
tp504
g228
g228
tp505
F-21707.321678220775
s(g469
I2
I00
I01
tp506
F3402.503368219072
s((I1
g154
tp507
(S'blocked 4'
p508
g36
tp509
g158
g158
tp510
F-705.6161381600709
s((I1
g52
tp511
(S'open 3'
p512
g43
tp513
g46
g46
tp514
F9283.203994947424
s((I1
g63
tp515
(g364
g4
tp516
g7
g7
tp517
F115.4624214151097
s((I0
S'2'
p518
tp519
(S'blocked 3'
p520
S'5'
p521
tp522
g198
g198
tp523
F485.614052486398
s((I0
g518
tp524
(g520
S'7'
p525
tp526
g197
g197
tp527
F-1837.2318270950407
s((I0
g66
tp528
(g74
g48
tp529
g7
g6
tp530
F990.5023936910906
s((I1
g66
tp531
(g70
g66
tp532
g7
g6
tp533
F20745.80138747415
s((I1
g52
tp534
(S'open 4'
p535
g43
tp536
g45
g46
tp537
F-22313.42208280521
s((I0
g117
tp538
(g161
g4
tp539
g6
g6
tp540
F5662.058745089566
s((I0
g4
tp541
(S'open 2'
p542
g128
tp543
g7
g7
tp544
F-764.6061400845905
s((I1
g95
tp545
(S'blocked 2'
p546
g95
tp547
g7
g7
tp548
F-16625.90879073776
s((I1
S'4'
p549
tp550
(g420
S'2'
p551
tp552
g89
g89
tp553
F9120.063232712286
s((I1
g95
tp554
(g60
g48
tp555
g7
g6
tp556
F-2722.7117124899805
s(S'blocked 2'
p557
I1
I00
I00
tp558
F-4942.229974436544
s((I1
g128
tp559
(g127
g117
tp560
g6
g6
tp561
F-22.656993193897446
s((I1
S'3'
p562
tp563
(S'blocked 3'
p564
S'5'
p565
tp566
S'False'
p567
g567
tp568
F-1592.088272289385
s((I0
g95
tp569
(S'open 2'
p570
g1
tp571
g6
g7
tp572
F-2789.424581471417
s((I1
g43
tp573
(g112
g52
tp574
g46
g45
tp575
F10446.23563526912
s((I1
g95
tp576
(S'blocked 3'
p577
g63
tp578
g6
g6
tp579
F-1196.3526438903243
s((I1
g24
tp580
(S'blocked 3'
p581
g207
tp582
g27
g26
tp583
F6348.798274062818
s((I0
g4
tp584
(S'open 2'
p585
g48
tp586
g6
g7
tp587
F-1221.8397470504863
s((I0
g192
tp588
(S'blocked 2'
p589
g245
tp590
g197
g198
tp591
F1420.8936288698949
s((I0
g24
tp592
(S'blocked 4'
p593
g207
tp594
g26
g27
tp595
F-5446.733911136984
s((I0
g4
tp596
(S'open 4'
p597
g128
tp598
g6
g7
tp599
F1489.6289590863496
s((I1
g120
tp600
(S'blocked 4'
p601
g503
tp602
g124
g124
tp603
F-6337.208500780265
s((I0
g518
tp604
(g278
g245
tp605
g198
g198
tp606
F2461.1835790549535
s((I0
g187
tp607
(g186
g499
tp608
g189
g190
tp609
F4369.687051250854
s(g3
I7
I01
I00
tp610
F-272.7964082425535
s(g420
I4
I00
I00
tp611
F4327.574263289487
s((I0
g16
tp612
(S'blocked 2'
p613
S'5'
p614
tp615
g18
g19
tp616
F1409.5152570303233
s((I1
g128
tp617
(g127
g95
tp618
g6
g6
tp619
F1155.8066011644992
s((I1
g4
tp620
(S'open 2'
p621
g63
tp622
g7
g7
tp623
F11595.810710710475
s((I1
g43
tp624
(g469
g40
tp625
g46
g45
tp626
F-466.7216615350639
s(g122
I1
I00
I01
tp627
F-6220.741794555195
s((I1
g120
tp628
(g226
g503
tp629
g228
g228
tp630
F-14723.321670539832
s((I1
g21
tp631
(S'open 2'
p632
g24
tp633
g26
g27
tp634
F-22355.899383046133
s((I1
g357
tp635
(g359
g357
tp636
g362
g362
tp637
F-31678.92166850532
s((I1
g145
tp638
(S'blocked 3'
p639
g142
tp640
g148
g147
tp641
F-1830.5611722086546
s(g127
I9
I00
I01
tp642
F-135.8376705646507
s((I0
g167
tp643
(g169
S'6'
p644
tp645
g172
S'True'
p646
tp647
F-902.8558192373777
s((I0
g154
tp648
(g156
g36
tp649
g38
g158
tp650
F-1259.2226336276374
s((I1
g120
tp651
(g226
g120
tp652
g124
g228
tp653
F15753.92279994622
s((I1
g9
tp654
(g70
g95
tp655
g7
g7
tp656
F-5295.039867964486
s(g411
I3
I00
I00
tp657
F-36085.522141357935
s((I1
g63
tp658
(g364
g9
tp659
g6
g6
tp660
F2341.9212950293067
s((I1
g614
tp661
(g465
g13
tp662
g19
g18
tp663
F-245.97466476717966
s(g23
I2
I00
I01
tp664
F16587.771656440826
s((I0
g83
tp665
(S'blocked 4'
p666
S'9'
p667
tp668
g88
g88
tp669
F-1420.7252172973986
s((I1
g614
tp670
(g465
g370
tp671
g18
g18
tp672
F404.94127029990193
s((I0
g95
tp673
(S'open 2'
p674
g66
tp675
g7
g6
tp676
F-4260.023301547201
s((I1
g1
tp677
(g70
g95
tp678
g7
g7
tp679
F-4542.3197284988655
s(g601
I1
I01
I01
tp680
F95495.3963762509
s((I1
g63
tp681
(g127
g48
tp682
g6
g7
tp683
F366.13663564101563
s((I0
g230
tp684
(S'open 4'
p685
g145
tp686
g148
g148
tp687
F3335.713595514738
s(g139
I4
I01
I00
tp688
F-3408.3435941196813
s((I1
g418
tp689
(g420
g421
tp690
g88
g88
tp691
F2905.7853849847215
s((I1
g4
tp692
(g249
g48
tp693
g7
g7
tp694
F13.029509543880295
s((I1
g549
tp695
(g135
g421
tp696
g88
g89
tp697
F177.6532427178611
s((I1
g66
tp698
(g60
g1
tp699
g7
g6
tp700
F410.0018053796106
s((I0
g40
tp701
(g42
g52
tp702
g45
g45
tp703
F22691.56293691881
s((I1
g128
tp704
(g127
g4
tp705
g6
g7
tp706
F-2067.7669845150053
s((I1
g549
tp707
(g420
g421
tp708
g88
g89
tp709
F256.2139307477562
s((I0
g4
tp710
(g211
g63
tp711
g6
g7
tp712
F953.8584707519271
s((I1
g1
tp713
(g364
g9
tp714
g7
g6
tp715
F1304.5298143449982
s((I0
g95
tp716
(g396
g63
tp717
g7
g6
tp718
F155.47274528719686
s((I1
g66
tp719
(g70
g48
tp720
g6
g7
tp721
F121.26412049156608
s((I1
g95
tp722
(g577
g1
tp723
g7
g7
tp724
F1260.578568739716
s((I1
g66
tp725
(g60
g66
tp726
g7
g6
tp727
F-3180.171644739866
s((I1
g1
tp728
(g70
g4
tp729
g6
g7
tp730
F-395.9149569364158
s((I0
g63
tp731
(g3
g9
tp732
g6
g6
tp733
F-137.15477223995515
s((I1
g207
tp734
(g139
g24
tp735
g26
g27
tp736
F-9065.835028528802
s(g292
I1
I01
I00
tp737
F16396.396097707595
s((I1
g40
tp738
(S'open 2'
p739
g40
tp740
g45
g45
tp741
F-721.5954512264548
s((I0
g24
tp742
(g286
g137
tp743
g26
g27
tp744
F144.82188378015348
s((I1
g4
tp745
(S'open 3'
p746
g117
tp747
g7
g7
tp748
F493.9312825637336
s((I1
g66
tp749
(g127
g66
tp750
g7
g7
tp751
F-502.36529467241644
s(S'open 3'
p752
I1
I00
I01
tp753
F-14598.01303133477
s((I1
g95
tp754
(S'open 2'
p755
g63
tp756
g7
g6
tp757
F204.47142225039602
s((I0
g9
tp758
(g253
g63
tp759
g7
g7
tp760
F-3985.5818603497078
s((I1
g43
tp761
(S'blocked 2'
p762
g52
tp763
g46
g46
tp764
F-3646.8640792493816
s((I0
g66
tp765
(g161
g66
tp766
g6
g7
tp767
F6711.947076825428
s((I0
g4
tp768
(S'blocked 4'
p769
g95
tp770
g7
g6
tp771
F-20180.397789573257
s((I0
g95
tp772
(g396
g9
tp773
g6
g6
tp774
F2995.246624046003
s((I0
g518
tp775
(S'blocked 2'
p776
g192
tp777
g197
g198
tp778
F-2126.692972989769
s((I1
g4
tp779
(S'open 3'
p780
g63
tp781
g6
g7
tp782
F-880.850951754409
s((I0
g230
tp783
(S'blocked 3'
p784
g142
tp785
g147
g148
tp786
F-4836.554839731436
s((I0
g95
tp787
(g282
g66
tp788
g7
g7
tp789
F876.0012957724116
s((I0
g478
tp790
(S'blocked 2'
p791
g667
tp792
g88
g89
tp793
F1025.1131309010023
s((I1
g43
tp794
(g112
g43
tp795
g45
g45
tp796
F-16693.232315109955
s((I0
g95
tp797
(g396
g63
tp798
g7
g7
tp799
F-612.4665428169458
s((I0
g4
tp800
(S'open 4'
p801
g9
tp802
g7
g6
tp803
F-88.48947977271246
s(g42
I4
I00
I01
tp804
F8886.334764783722
s((I0
g518
tp805
(g278
g245
tp806
g198
g197
tp807
F1311.3660637175274
s(g411
I3
I01
I00
tp808
F-1693.6986456469012
s((I1
g66
tp809
(S'blocked 2'
p810
g95
tp811
g6
g6
tp812
F46.61177051345339
s((I1
S'3'
p813
tp814
(S'blocked 3'
p815
g644
tp816
g172
g646
tp817
F-1756.9580356144916
s((I1
g128
tp818
(g127
g128
tp819
g7
g7
tp820
F-123.4958050392921
s((I1
g40
tp821
(g112
g52
tp822
g45
g45
tp823
F6734.875415753302
s((I1
S'10'
p824
tp825
(g57
g242
tp826
g198
g197
tp827
F1191.6505822346855
s((I1
g63
tp828
(g364
g9
tp829
g7
g6
tp830
F2518.0921481062555
s((I1
g207
tp831
(g139
g24
tp832
g27
g27
tp833
F11222.004900157659
s((I1
g63
tp834
(g364
g63
tp835
g7
g6
tp836
F4196.9608491762465
s((I1
g120
tp837
(S'open 2'
p838
g503
tp839
g228
g228
tp840
F-1602.4245781587197
s((I0
g4
tp841
(g295
g9
tp842
g6
g6
tp843
F1539.5256730754181
s((I1
g614
tp844
(g465
g370
tp845
g19
g18
tp846
F-600.5240839042439
s((I1
g4
tp847
(S'open 2'
p848
g1
tp849
g6
g6
tp850
F-1893.622181156626
s((I1
g667
tp851
(S'blocked 2'
p852
g478
tp853
g89
g88
tp854
F-719.8119594441262
s(g139
I3
I01
I00
tp855
F-4636.972044563545
s((I0
g1
tp856
(g253
g95
tp857
g6
g6
tp858
F931.6561233783697
s((I1
g187
tp859
(g425
S'4'
p860
tp861
g189
g189
tp862
F-1205.771796554141
s(g23
I2
I01
I00
tp863
F-14002.069506441741
s((I0
S'5'
p864
tp865
(g144
g145
tp866
g147
g147
tp867
F-680.1534917466039
s((I1
g4
tp868
(g458
g63
tp869
g6
g7
tp870
F-3907.8075745756496
s((I1
g48
tp871
(g364
g1
tp872
g7
g6
tp873
F-637.5156404831437
s((I1
g52
tp874
(g469
g428
tp875
g45
g45
tp876
F-6755.754596666757
s(g3
I5
I00
I01
tp877
F-6349.5800358756605
s((I1
g95
tp878
(g577
g1
tp879
g6
g6
tp880
F-1257.6412879417735
s((I1
g357
tp881
(g359
g357
tp882
g361
g361
tp883
F38793.66128450735
s((I1
g120
tp884
(g838
g503
tp885
g124
g124
tp886
F-1796.209953590051
s((I1
g4
tp887
(g249
g48
tp888
g7
g6
tp889
F-1609.1533501572296
s((I1
g16
tp890
(g465
g313
tp891
g19
g19
tp892
F11.703979722532676
s((I0
g95
tp893
(g415
g95
tp894
g6
g7
tp895
F-1877.5778719685595
s(g112
I2
I01
I00
tp896
F4451.529324821172
s((I1
g4
tp897
(S'open 4'
p898
g63
tp899
g6
g7
tp900
F528.9235230353725
s((I0
g24
tp901
(g332
g137
tp902
g26
g26
tp903
F1194.63894051339
s((I0
S'3'
p904
tp905
(S'open 2'
p906
S'4'
p907
tp908
g38
g38
tp909
F1022.0668637591871
s((I0
g9
tp910
(g3
g95
tp911
g7
g6
tp912
F2745.6069222759133
s(g122
I1
I01
I01
tp913
F13307.076667372337
s((I0
g518
tp914
(g520
g245
tp915
g198
g198
tp916
F-1.9148954844135728
s((I0
g323
tp917
(g442
g443
tp918
g325
g325
tp919
F-2147.3497066790414
s((I0
g95
tp920
(g396
g1
tp921
g7
g7
tp922
F1679.5247616945787
s((I1
g207
tp923
(g139
g24
tp924
g26
g26
tp925
F-16050.322158008403
s((I0
g95
tp926
(g3
g95
tp927
g7
g6
tp928
F1195.3560802813313
s((I0
g16
tp929
(S'open 2'
p930
g13
tp931
g19
g18
tp932
F6679.459462768121
s((I1
g1
tp933
(g70
g48
tp934
g6
g7
tp935
F-553.1058678733855
s((I1
g4
tp936
(g746
g117
tp937
g7
g6
tp938
F6.657008869907804
s((I0
g95
tp939
(g415
g4
tp940
g7
g6
tp941
F6619.811328394931
s((I1
g4
tp942
(g60
g1
tp943
g6
g7
tp944
F1210.3074662801882
s((I0
g503
tp945
(g122
g120
tp946
g124
g124
tp947
F-10238.07248367372
s((I1
g245
tp948
(g57
g256
tp949
g198
g197
tp950
F191.07024245298658
s((I0
g1
tp951
(g3
g9
tp952
g6
g7
tp953
F1843.9173988789005
s((I1
g478
tp954
(g852
S'6'
p955
tp956
g88
g89
tp957
F-127.6229361853068
s((I0
g4
tp958
(g396
g48
tp959
g6
g6
tp960
F-2146.0918987013106
s((I1
g499
tp961
(S'blocked 2'
p962
g184
tp963
g189
g190
tp964
F260.6722080303963
s((I0
g518
tp965
(g520
g245
tp966
g197
g198
tp967
F-3245.1575829984376
s((I1
g117
tp968
(g127
g4
tp969
g6
g7
tp970
F378.8394518282541
s((I0
g1
tp971
(g253
g48
tp972
g6
g6
tp973
F-585.4627064089001
s((I1
g63
tp974
(g364
g95
tp975
g6
g6
tp976
F-4672.836824133712
s((I1
g443
tp977
(S'open 4'
p978
g323
tp979
g325
g325
tp980
F-6847.758060385718
s((I1
g245
tp981
(g57
g195
tp982
g198
g197
tp983
F-139.21205637633744
s(g3
I6
I00
I00
tp984
F-2888.146910826266
s(g465
I5
I01
I00
tp985
F2473.282829417507
s((I0
g242
tp986
(g776
g521
tp987
g197
g198
tp988
F644.940134053979
s((I0
g48
tp989
(g3
g9
tp990
g6
g6
tp991
F1412.2841728814315
s((I1
g24
tp992
(g216
g137
tp993
g27
g27
tp994
F3208.1936387468895
s((I0
g518
tp995
(g278
S'8'
p996
tp997
g198
g197
tp998
F1387.9460414281605
s((I0
g117
tp999
(g161
g95
tp1000
g7
g6
tp1001
F-80.81155215365264
s((I0
g192
tp1002
(g589
g256
tp1003
g197
g198
tp1004
F-891.2294405090872
s((I0
g187
tp1005
(S'blocked 3'
p1006
g184
tp1007
g190
g189
tp1008
F-9155.190229626973
s((I0
g63
tp1009
(g253
g95
tp1010
g7
g6
tp1011
F942.6698263710639
s(g601
I1
I00
I01
tp1012
F-45026.16554917065
s(g161
I8
I01
I01
tp1013
F2952.3207130142746
s((I0
g117
tp1014
(g161
g4
tp1015
g6
g7
tp1016
F37.24811278138219
s((I0
g48
tp1017
(g3
g4
tp1018
g7
g6
tp1019
F206.72695199426323
s((I0
g40
tp1020
(g42
g43
tp1021
g45
g45
tp1022
F386.1803081687524
s((I1
g16
tp1023
(g465
g370
tp1024
g19
g18
tp1025
F741.035982585541
s((I1
g242
tp1026
(g353
S'10'
p1027
tp1028
g197
g198
tp1029
F-267.804424634962
s((I1
g120
tp1030
(g601
g120
tp1031
g228
g124
tp1032
F-1406.7197538928795
s((I0
g230
tp1033
(S'blocked 2'
p1034
g145
tp1035
g147
g147
tp1036
F16787.943450777893
s((I1
g187
tp1037
(g425
g860
tp1038
g190
g190
tp1039
F2295.8210997623914
s((I0
g48
tp1040
(g3
g66
tp1041
g6
g6
tp1042
F1983.2845969413586
s((I1
g63
tp1043
(g364
g63
tp1044
g7
g7
tp1045
F2506.673888916798
s((I0
g4
tp1046
(g597
g117
tp1047
g6
g6
tp1048
F3253.6634310743493
s((I1
g549
tp1049
(g135
g421
tp1050
g89
g89
tp1051
F-3195.941696382334
s((I1
g95
tp1052
(g401
g117
tp1053
g6
g7
tp1054
F-977.7244335797387
s((I0
g9
tp1055
(g253
g4
tp1056
g7
g6
tp1057
F-5896.69571581466
s((I0
g4
tp1058
(g801
g9
tp1059
g6
g7
tp1060
F1583.6527656960034
s(g122
I2
I01
I01
tp1061
F29707.008042913865
s((I1
g9
tp1062
(g70
g1
tp1063
g6
g7
tp1064
F5169.339788996142
s((I0
g4
tp1065
(g597
g128
tp1066
g6
g6
tp1067
F2304.392798227663
s((I0
g4
tp1068
(g396
g63
tp1069
g7
g7
tp1070
F-1348.8593033782877
s((I1
g128
tp1071
(g127
g4
tp1072
g7
g7
tp1073
F1639.5925435317984
s((I0
g24
tp1074
(g23
g24
tp1075
g27
g26
tp1076
F-17200.96289463594
s((I1
g4
tp1077
(g151
g128
tp1078
g7
g6
tp1079
F2496.4910487679554
s((I1
g242
tp1080
(S'blocked 4'
p1081
g192
tp1082
g197
g197
tp1083
F-5525.07638618535
s((I1
g120
tp1084
(g601
g503
tp1085
g228
g228
tp1086
F6806.818150822051
s((I1
g95
tp1087
(g577
g1
tp1088
g6
g7
tp1089
F-53.3453689393686
s((I1
g145
tp1090
(g473
g142
tp1091
g148
g147
tp1092
F-224.17271969117087
s((I1
g24
tp1093
(S'blocked 4'
p1094
g207
tp1095
g26
g26
tp1096
F-2877.2067919564533
s((I0
g117
tp1097
(g161
g95
tp1098
g6
g6
tp1099
F317.3448148849844
s((I1
g13
tp1100
(g15
g16
tp1101
g19
g18
tp1102
F321.41786096548316
s((I0
g120
tp1103
(S'blocked 3'
p1104
g120
tp1105
g228
g228
tp1106
F-5645.45926176333
s((I0
g52
tp1107
(S'open 3'
p1108
g43
tp1109
g46
g46
tp1110
F-2293.5357138778872
s((I1
g1
tp1111
(g70
g66
tp1112
g6
g7
tp1113
F-878.4937756086819
s((I1
g202
tp1114
(g349
g202
tp1115
g148
g148
tp1116
F4067.140606513493
s((I0
g48
tp1117
(g161
g63
tp1118
g6
g6
tp1119
F-189.4421710983166
s((I1
g43
tp1120
(g112
g52
tp1121
g45
g46
tp1122
F-5805.638584414097
s((I1
g43
tp1123
(g112
g40
tp1124
g46
g45
tp1125
F-14.221625131092878
s((I0
g13
tp1126
(g312
g370
tp1127
g19
g18
tp1128
F402.83838812798155
s((I0
g24
tp1129
(S'blocked 3'
p1130
g21
tp1131
g26
g26
tp1132
F5616.933307268004
s((I0
g4
tp1133
(S'open 3'
p1134
g117
tp1135
g7
g6
tp1136
F-49.95758354914142
s((I1
g4
tp1137
(g577
g63
tp1138
g6
g6
tp1139
F3167.732760077187
s((I0
g48
tp1140
(g3
g66
tp1141
g7
g6
tp1142
F-334.53809863117726
s(g139
I3
I01
I01
tp1143
F4801.860328996442
s((I0
g4
tp1144
(g769
g128
tp1145
g7
g6
tp1146
F-5472.603882141947
s((I0
g4
tp1147
(g570
g1
tp1148
g7
g7
tp1149
F966.0622618857964
s((I0
g4
tp1150
(g295
g95
tp1151
g6
g6
tp1152
F6754.975404606914
s((I0
g48
tp1153
(g161
g63
tp1154
g6
g7
tp1155
F1571.177491724419
s((I1
g13
tp1156
(g15
g614
tp1157
g19
g18
tp1158
F-41.26770081326541
s((I0
g242
tp1159
(S'open 3'
p1160
g525
tp1161
g197
g198
tp1162
F719.1772105866748
s((I0
g4
tp1163
(g542
g128
tp1164
g7
g6
tp1165
F-4140.321733317122
s((I1
g614
tp1166
(g465
g370
tp1167
g19
g19
tp1168
F-656.2736236206504
s((I1
g120
tp1169
(g292
g120
tp1170
g228
g124
tp1171
F-7989.87435559223
s((I1
g614
tp1172
(g465
g13
tp1173
g18
g19
tp1174
F11.679747936298373
s((I1
g137
tp1175
(g139
g24
tp1176
g27
g27
tp1177
F9229.1563866825
s(g161
I8
I00
I00
tp1178
F-2432.854521805906
s((I1
g9
tp1179
(g70
g9
tp1180
g7
g7
tp1181
F-979.1385269943827
s((I1
g499
tp1182
(S'blocked 2'
p1183
g184
tp1184
g190
g190
tp1185
F13166.634680797184
s(g442
I5
I01
I01
tp1186
F-1408.8761425521197
s((I1
g43
tp1187
(g236
g40
tp1188
g46
g46
tp1189
F5671.5462024055305
s((I0
g4
tp1190
(g161
g9
tp1191
g6
g7
tp1192
F-5014.706286441925
s((I1
g245
tp1193
(g57
g195
tp1194
g198
g198
tp1195
F550.3242141769024
s(g420
I4
I00
I01
tp1196
F-20310.51380709299
s((I0
g117
tp1197
(g161
g4
tp1198
g7
g7
tp1199
F-4479.233012330707
s((I0
g230
tp1200
(g685
g145
tp1201
g147
g147
tp1202
F-5027.040076987392
s((I0
g1
tp1203
(g253
g63
tp1204
g6
g6
tp1205
F4187.294680207283
s((I1
g24
tp1206
(S'open 2'
p1207
g21
tp1208
g26
g27
tp1209
F-8176.118101079204
s((I1
g4
tp1210
(g621
g63
tp1211
g6
g6
tp1212
F-13254.14612980417
s((I1
g195
tp1213
(S'blocked 2'
p1214
g192
tp1215
g197
g197
tp1216
F-1697.1338414936045
s((I0
g95
tp1217
(S'open 2'
p1218
g95
tp1219
g6
g6
tp1220
F-9089.460777576587
s((I1
g4
tp1221
(g116
g128
tp1222
g6
g7
tp1223
F-1507.9380962660664
s((I1
g1
tp1224
(g364
g9
tp1225
g6
g7
tp1226
F1818.9829774351053
s((I0
g428
tp1227
(g42
g52
tp1228
g46
g45
tp1229
F-9253.763134313005
s((I0
g48
tp1230
(g3
g66
tp1231
g6
g7
tp1232
F3769.636202208926
s((I1
g63
tp1233
(g65
g66
tp1234
g7
g6
tp1235
F-10178.7878223557
s((I1
g1
tp1236
(g70
g4
tp1237
g7
g6
tp1238
F1300.8410745168142
s((I0
g24
tp1239
(g332
g207
tp1240
g27
g26
tp1241
F-8799.708991483925
s((I0
g4
tp1242
(S'blocked 4'
p1243
g1
tp1244
g7
g7
tp1245
F-10187.467137765167
s((I0
g66
tp1246
(g74
g48
tp1247
g6
g6
tp1248
F-2330.19842063151
s((I1
g4
tp1249
(g621
g63
tp1250
g7
g6
tp1251
F-12456.018681965797
s(g601
I1
I01
I00
tp1252
F35249.984981013484
s((I1
g4
tp1253
(g848
g1
tp1254
g7
g7
tp1255
F2458.8838944771296
s((I1
g52
tp1256
(S'blocked 2'
p1257
g43
tp1258
g45
g46
tp1259
F-103.11135454727469
s(g139
I4
I01
I01
tp1260
F-18.64377127275759
s((I0
g63
tp1261
(g253
g4
tp1262
g6
g7
tp1263
F6309.548600199102
s((I1
g13
tp1264
(g15
g614
tp1265
g18
g19
tp1266
F212.45337732213085
s((I0
g52
tp1267
(g482
g43
tp1268
g45
g46
tp1269
F-1574.8226240814909
s(g112
I3
I00
I00
tp1270
F4899.408275905525
s((I1
g16
tp1271
(g15
g16
tp1272
g18
g18
tp1273
F2675.945304997995
s((I1
g202
tp1274
(S'blocked 2'
p1275
g142
tp1276
g148
g147
tp1277
F1160.7403499778077
s((I1
g43
tp1278
(g469
g52
tp1279
g45
g46
tp1280
F4854.234706296838
s((I0
g142
tp1281
(g144
g145
tp1282
g147
g147
tp1283
F-14825.195061916595
s((I1
g4
tp1284
(g401
g117
tp1285
g6
g7
tp1286
F-3507.039333801846
s((I1
g503
tp1287
(g292
g120
tp1288
g228
g228
tp1289
F-20487.761857407506
s(g292
I1
I01
I01
tp1290
F33053.41069879532
s((I0
g40
tp1291
(S'open 2'
p1292
g40
tp1293
g45
g46
tp1294
F2311.3784513952733
s((I1
g21
tp1295
(g632
g24
tp1296
g27
g27
tp1297
F10314.093794833962
s((I1
g245
tp1298
(g57
g192
tp1299
g197
g198
tp1300
F1480.5035823618935
s((I1
g66
tp1301
(g810
g95
tp1302
g7
g7
tp1303
F-2217.693717908639
s((I1
g4
tp1304
(g577
g63
tp1305
g6
g7
tp1306
F2246.409075696407
s((I1
g154
tp1307
(g508
g36
tp1308
g38
g38
tp1309
F949.1531304407088
s((I1
g242
tp1310
(g1081
g192
tp1311
g198
g198
tp1312
F2054.8453181808745
s((I1
g4
tp1313
(g780
g63
tp1314
g6
g6
tp1315
F897.5640233752654
s((I0
g518
tp1316
(g278
g245
tp1317
g197
g198
tp1318
F-874.673947262818
s((I1
g202
tp1319
(g1275
g142
tp1320
g147
g148
tp1321
F-902.5418163158356
s((I1
g120
tp1322
(g226
g503
tp1323
g124
g124
tp1324
F16662.889516218245
s((I0
g33
tp1325
(g35
g36
tp1326
g158
g158
tp1327
F4473.890083290745
s((I0
g1
tp1328
(g253
g63
tp1329
g7
g7
tp1330
F-5097.170364777904
s((I0
g52
tp1331
(g482
g52
tp1332
g45
g45
tp1333
F14762.754535233957
s((I1
g4
tp1334
(S'blocked 4'
p1335
g9
tp1336
g6
g7
tp1337
F-2789.574245929632
s((I0
g4
tp1338
(g396
g63
tp1339
g6
g6
tp1340
F-960.6753087230135
s((I1
g117
tp1341
(g127
g117
tp1342
g6
g7
tp1343
F218.14708420854876
s((I0
g52
tp1344
(g54
g52
tp1345
g46
g45
tp1346
F588.5256452185585
s((I0
g117
tp1347
(g161
g117
tp1348
g6
g6
tp1349
F-141.6490130810159
s((I0
g4
tp1350
(g3
g9
tp1351
g6
g6
tp1352
F-1191.9084038355886
s((I0
g95
tp1353
(g396
g9
tp1354
g7
g7
tp1355
F-130.82906293254018
s((I0
g95
tp1356
(g342
g48
tp1357
g7
g6
tp1358
F148.33213114943283
s((I0
g230
tp1359
(g232
g142
tp1360
g147
g147
tp1361
F-2892.069941151705
s((I1
g21
tp1362
(g139
g24
tp1363
g27
g26
tp1364
F11977.265865426943
s((I0
g24
tp1365
(g286
g24
tp1366
g27
g26
tp1367
F188.1839644290192
s((I1
g120
tp1368
(g292
g120
tp1369
g124
g124
tp1370
F-5430.299012733139
s((I1
g43
tp1371
(g469
g40
tp1372
g45
g46
tp1373
F809.5405861558027
s((I0
g95
tp1374
(g282
g95
tp1375
g6
g6
tp1376
F-11022.421844643295
s((I0
g95
tp1377
(g161
g9
tp1378
g7
g7
tp1379
F4100.51575045988
s((I1
g549
tp1380
(g420
g421
tp1381
g89
g88
tp1382
F-12204.87064486089
s((I1
g4
tp1383
(g116
g117
tp1384
g7
g6
tp1385
F4922.117381413842
s((I0
g4
tp1386
(g161
g9
tp1387
g7
g6
tp1388
F-2137.3457297942946
s((I0
g9
tp1389
(g253
g4
tp1390
g7
g7
tp1391
F4016.1398068786166
s((I1
g63
tp1392
(g364
g9
tp1393
g7
g7
tp1394
F836.4104361938898
s((I1
g63
tp1395
(g364
g4
tp1396
g7
g6
tp1397
F1427.3386478104276
s((I1
g13
tp1398
(g15
g16
tp1399
g18
g18
tp1400
F-1485.5645695989797
s((I1
g4
tp1401
(S'open 2'
p1402
g48
tp1403
g7
g6
tp1404
F-2544.625370510448
s((I0
g24
tp1405
(g593
g24
tp1406
g27
g26
tp1407
F47796.064576339566
s((I0
g66
tp1408
(g161
g66
tp1409
g7
g6
tp1410
F-2219.4926153871847
s((I1
g813
tp1411
(g815
g644
tp1412
g646
g172
tp1413
F1158.2483324513819
s((I0
g33
tp1414
(g35
g36
tp1415
g38
g158
tp1416
F-2038.331350785106
s((I1
g16
tp1417
(g465
g16
tp1418
g19
g19
tp1419
F166.78672032657815
s((I0
g95
tp1420
(g282
g66
tp1421
g6
g7
tp1422
F-5311.483485923881
s((I0
g4
tp1423
(g211
g63
tp1424
g7
g7
tp1425
F3544.4661152560066
s((I1
g4
tp1426
(g175
g1
tp1427
g7
g6
tp1428
F-11002.769179791436
s((I1
g667
tp1429
(g852
g478
tp1430
g88
g88
tp1431
F-1330.288874642152
s((I0
g63
tp1432
(g253
g63
tp1433
g7
g6
tp1434
F-980.99618274727
s((I1
g120
tp1435
(g752
g503
tp1436
g124
g228
tp1437
F-3333.029935800078
s((I1
g230
tp1438
(S'blocked 2'
p1439
g142
tp1440
g147
g148
tp1441
F-943.1935415181126
s((I0
g4
tp1442
(g570
g1
tp1443
g6
g7
tp1444
F6549.058855027312
s((I1
g13
tp1445
(g15
g614
tp1446
g18
g18
tp1447
F2598.0084094404942
s((I0
g48
tp1448
(g3
g95
tp1449
g6
g7
tp1450
F-3929.8999306640203
s((I0
g195
tp1451
(g589
g245
tp1452
g198
g197
tp1453
F528.824430171456
s((I1
g4
tp1454
(g746
g117
tp1455
g6
g7
tp1456
F62.46830342194807
s((I0
g48
tp1457
(g3
g4
tp1458
g6
g6
tp1459
F1116.6128129212584
s((I0
g242
tp1460
(S'open 3'
p1461
g521
tp1462
g197
g198
tp1463
F1227.8886492007275
s((I0
g9
tp1464
(g253
g63
tp1465
g6
g7
tp1466
F-1620.8550838170388
s((I1
g120
tp1467
(g601
g120
tp1468
g228
g228
tp1469
F-10500.543206930088
s((I1
g128
tp1470
(g127
g117
tp1471
g6
g7
tp1472
F-6492.506961304832
s((I1
g24
tp1473
(g302
g207
tp1474
g27
g27
tp1475
F10096.63964133708
s((I0
g4
tp1476
(g597
g117
tp1477
g6
g7
tp1478
F1832.1784755526355
s((I1
S'10'
p1479
tp1480
(g57
g518
tp1481
g197
g198
tp1482
F-207.41631974141708
s((I1
g36
tp1483
(g274
g36
tp1484
g158
g158
tp1485
F-2764.827868277975
s((I0
g95
tp1486
(g161
g9
tp1487
g6
g6
tp1488
F86.04358559966363
s((I1
g63
tp1489
(g364
g4
tp1490
g6
g6
tp1491
F-7243.2461344705
s((I1
g24
tp1492
(g1207
g21
tp1493
g27
g26
tp1494
F5358.069158081927
s((I1
g4
tp1495
(S'blocked 4'
p1496
g48
tp1497
g7
g6
tp1498
F138.6940417641331
s((I0
g1
tp1499
(g3
g4
tp1500
g7
g6
tp1501
F-4623.073666835988
s((I0
g192
tp1502
(g589
g256
tp1503
g198
g197
tp1504
F-313.62903075577583
s((I0
g230
tp1505
(g1034
g145
tp1506
g148
g148
tp1507
F-7335.067321612196
s((I0
g95
tp1508
(g570
g9
tp1509
g7
g6
tp1510
F-1712.304272886418
s((I0
g95
tp1511
(g415
g66
tp1512
g7
g6
tp1513
F7129.457499706881
s((I1
g187
tp1514
(g425
g184
tp1515
g189
g189
tp1516
F-2917.758327740772
s((I1
g245
tp1517
(g57
g192
tp1518
g198
g197
tp1519
F-139.9548880332626
s((I1
g9
tp1520
(g70
g63
tp1521
g7
g6
tp1522
F21.43977357192773
s((I0
g117
tp1523
(g161
g117
tp1524
g7
g6
tp1525
F-61.44564303146908
s((I0
g4
tp1526
(g542
g128
tp1527
g6
g7
tp1528
F7590.926431355416
s(g420
I5
I01
I01
tp1529
F7125.405679725318
s((I1
g313
tp1530
(S'blocked 2'
p1531
S'6'
p1532
tp1533
g19
g18
tp1534
F-888.7487143896238
s((I1
g52
tp1535
(S'blocked 4'
p1536
g428
tp1537
g46
g46
tp1538
F-1087.7596318448846
s(g122
I2
I00
I00
tp1539
F-28922.477644981514
s((I1
g95
tp1540
(S'open 2'
p1541
g9
tp1542
g6
g7
tp1543
F5403.039056145998
s((I0
g518
tp1544
(g520
g245
tp1545
g197
g197
tp1546
F-40.96503852044296
s((I0
g95
tp1547
(g342
g48
tp1548
g6
g6
tp1549
F4.535563002583558
s((I1
g4
tp1550
(S'open 3'
p1551
g1
tp1552
g7
g6
tp1553
F1661.2085989973123
s((I1
g242
tp1554
(S'open 4'
p1555
g525
tp1556
g198
g198
tp1557
F-2641.384718002914
s((I0
g4
tp1558
(g1243
g9
tp1559
g6
g7
tp1560
F523.0988395345763
s((I1
g95
tp1561
(g60
g48
tp1562
g7
g7
tp1563
F-2540.8453655690873
s((I0
g120
tp1564
(g1104
g503
tp1565
g228
g124
tp1566
F-1354.9394504690335
s((I1
g4
tp1567
(g151
g117
tp1568
g7
g6
tp1569
F2028.2964933507606
s((I1
g1
tp1570
(g70
g48
tp1571
g7
g6
tp1572
F880.6435457991262
s((I0
g66
tp1573
(g161
g9
tp1574
g7
g7
tp1575
F-2241.472873646361
s((I1
g13
tp1576
(g15
g614
tp1577
g19
g19
tp1578
F-45.09878001084436
s((I0
g48
tp1579
(g3
g95
tp1580
g7
g6
tp1581
F1565.172558210755
s((I0
g95
tp1582
(g3
g9
tp1583
g7
g6
tp1584
F-1726.0648907547502
s((I1
g43
tp1585
(S'open 2'
p1586
g43
tp1587
g46
g45
tp1588
F1110.2083451020085
s((I1
g117
tp1589
(g127
g95
tp1590
g7
g7
tp1591
F-1440.3119638640514
s((I1
g16
tp1592
(g15
g370
tp1593
g18
g19
tp1594
F-11334.638319953794
s((I1
g63
tp1595
(g364
g95
tp1596
g7
g7
tp1597
F5901.015345360718
s((I1
g63
tp1598
(g127
g48
tp1599
g7
g6
tp1600
F-497.69329462996006
s((I1
g9
tp1601
(g70
g95
tp1602
g6
g6
tp1603
F-1723.9568526067424
s(g127
I9
I01
I01
tp1604
F-4514.5913275708745
s((I1
g549
tp1605
(g420
g551
tp1606
g88
g88
tp1607
F-20549.283653342056
s((I0
g95
tp1608
(g132
g1
tp1609
g7
g7
tp1610
F-1543.0412676023561
s((I1
g117
tp1611
(g127
g4
tp1612
g7
g6
tp1613
F-324.16956147643384
s((I1
g1
tp1614
(S'blocked 2'
p1615
g66
tp1616
g7
g7
tp1617
F-2196.2476947181913
s((I1
g63
tp1618
(g364
g1
tp1619
g6
g6
tp1620
F393.82716716225536
s((I1
g313
tp1621
(g1531
g1532
tp1622
g19
g19
tp1623
F-983.8788355742286
s((I1
g4
tp1624
(g151
g117
tp1625
g6
g7
tp1626
F-5443.415029125773
s((I0
g167
tp1627
(g169
g170
tp1628
g646
g172
tp1629
F-179.9216728656263
s((I0
g4
tp1630
(g211
g63
tp1631
g7
g6
tp1632
F-2314.227695305047
s((I1
g154
tp1633
(S'open 3'
p1634
g36
tp1635
g38
g38
tp1636
F-3121.6662537973107
s((I1
g4
tp1637
(g270
g48
tp1638
g6
g7
tp1639
F-682.8467504609697
s((I0
g242
tp1640
(S'open 4'
p1641
g525
tp1642
g197
g198
tp1643
F-5089.566124975083
s((I0
g63
tp1644
(g3
g9
tp1645
g7
g7
tp1646
F-616.9097721011437
s((I0
g4
tp1647
(g396
g63
tp1648
g7
g6
tp1649
F-7073.5984614332665
s((I0
g230
tp1650
(g232
g202
tp1651
g147
g147
tp1652
F-27387.71194404236
s((I1
g4
tp1653
(g401
g128
tp1654
g6
g6
tp1655
F-1639.8240878006873
s((I0
g52
tp1656
(S'open 2'
p1657
g43
tp1658
g46
g46
tp1659
F-3848.381520104819
s((I1
g242
tp1660
(g244
g245
tp1661
g197
g198
tp1662
F707.6051836895806
s((I1
g48
tp1663
(g127
g4
tp1664
g6
g6
tp1665
F3791.5098361618216
s((I1
g313
tp1666
(g1531
g1532
tp1667
g18
g19
tp1668
F1930.6672837362373
s((I0
g83
tp1669
(g477
g478
tp1670
g89
g89
tp1671
F-2252.9048021650356
s((I1
g128
tp1672
(g127
g117
tp1673
g7
g7
tp1674
F460.04210736168034
s((I1
g52
tp1675
(g1536
g428
tp1676
g45
g45
tp1677
F3652.945548382366
s((I1
g24
tp1678
(g206
g207
tp1679
g27
g26
tp1680
F-4684.144081830916
s((I1
g24
tp1681
(g302
g207
tp1682
g26
g27
tp1683
F-4638.895199101129
s((I1
g614
tp1684
(g465
g313
tp1685
g19
g18
tp1686
F-384.3354136987182
s((I1
g52
tp1687
(g512
g43
tp1688
g45
g45
tp1689
F-9699.194447360727
s((I0
g95
tp1690
(g415
g4
tp1691
g7
g7
tp1692
F-21438.204875981603
s((I0
g117
tp1693
(g161
g95
tp1694
g6
g7
tp1695
F-67.57618184046834
s((I1
g499
tp1696
(g962
g860
tp1697
g189
g189
tp1698
F-5505.443143461672
s(g77
I1
I01
I01
tp1699
F34869.898106495595
s((I0
g4
tp1700
(g769
g117
tp1701
g7
g6
tp1702
F-13.978472311940035
s((I0
g120
tp1703
(g1104
g120
tp1704
g124
g124
tp1705
F7323.377445299133
s((I1
g128
tp1706
(g127
g4
tp1707
g6
g6
tp1708
F-4334.066268236639
s((I0
g4
tp1709
(g1243
g9
tp1710
g7
g6
tp1711
F-163.6511439732958
s((I1
g245
tp1712
(g57
g192
tp1713
g198
g198
tp1714
F3353.6836454096538
s((I0
g313
tp1715
(S'open 3'
p1716
g614
tp1717
g18
g18
tp1718
F-1801.462050871773
s((I0
g9
tp1719
(g3
g9
tp1720
g6
g7
tp1721
F-713.791986178905
s((I0
g4
tp1722
(g542
g128
tp1723
g6
g6
tp1724
F103.07147670007294
s((I1
g245
tp1725
(g57
g256
tp1726
g197
g198
tp1727
F-306.58846103015094
s((I1
g145
tp1728
(g473
g864
tp1729
g148
g147
tp1730
F-578.3661568696767
s((I0
g1
tp1731
(g253
g48
tp1732
g7
g7
tp1733
F692.1293959694398
s((I0
g128
tp1734
(g161
g128
tp1735
g7
g6
tp1736
F132.82723782596463
s((I0
g120
tp1737
(g557
g120
tp1738
g228
g228
tp1739
F21755.90049123153
s((I1
g40
tp1740
(g411
g52
tp1741
g46
g45
tp1742
F20762.405872819112
s((I0
g4
tp1743
(g585
g117
tp1744
g6
g6
tp1745
F-294.37042759085523
s((I0
S'2'
p1746
tp1747
(g169
g170
tp1748
g646
g172
tp1749
F302.0641475684043
s((I0
g518
tp1750
(S'blocked 3'
p1751
g192
tp1752
g198
g197
tp1753
F-2200.49576671469
s((I0
g128
tp1754
(g161
g4
tp1755
g7
g6
tp1756
F-363.66146257337425
s((I1
g4
tp1757
(g401
g117
tp1758
g7
g6
tp1759
F1885.1174139028174
s((I1
g36
tp1760
(g274
g33
tp1761
g38
g38
tp1762
F2634.844240955551
s((I1
g4
tp1763
(g60
g48
tp1764
g6
g6
tp1765
F4118.204308688835
s(g359
I1
I01
I00
tp1766
F72571.34722732904
s((I0
g154
tp1767
(S'blocked 4'
p1768
g33
tp1769
g38
g38
tp1770
F-6598.917849464989
s((I0
g120
tp1771
(g1104
g120
tp1772
g124
g228
tp1773
F1586.2965944487034
s((I0
g48
tp1774
(g3
g95
tp1775
g7
g7
tp1776
F1253.085501039913
s((I0
g518
tp1777
(g520
g195
tp1778
g198
g197
tp1779
F233.25558105659832
s((I0
g120
tp1780
(g122
g120
tp1781
g228
g228
tp1782
F-14572.737954913671
s((I1
g4
tp1783
(S'open 4'
p1784
g63
tp1785
g6
g6
tp1786
F1666.5821911715175
s((I1
g313
tp1787
(g1531
g614
tp1788
g18
g19
tp1789
F-2381.29101288166
s((I1
g4
tp1790
(g746
g128
tp1791
g7
g6
tp1792
F3518.269830663021
s((I0
g323
tp1793
(g442
g443
tp1794
g326
g325
tp1795
F201.783148013953
s((I0
g192
tp1796
(g589
g245
tp1797
g198
g197
tp1798
F-2161.2017057494672
s((I0
g1
tp1799
(g3
g4
tp1800
g6
g6
tp1801
F-1071.7173428290075
s((I0
g24
tp1802
(g286
g137
tp1803
g27
g26
tp1804
F2217.0083095048185
s((I1
g36
tp1805
(g274
g36
tp1806
g158
g38
tp1807
F-1969.6106411148817
s((I0
g66
tp1808
(g3
g4
tp1809
g6
g6
tp1810
F-16338.688072431407
s((I1
g478
tp1811
(g852
g955
tp1812
g88
g88
tp1813
F774.287326319214
s((I0
g4
tp1814
(S'open 4'
p1815
g4
tp1816
g6
g6
tp1817
F29326.806368323774
s((I1
g549
tp1818
(g135
g83
tp1819
g89
g88
tp1820
F1715.5863217427723
s((I1
g1
tp1821
(g65
g4
tp1822
g7
g7
tp1823
F895.0068836841974
s(g762
I2
I00
I00
tp1824
F-6964.90795520195
s(g70
I5
I01
I01
tp1825
F803.2536514317112
s((I1
g4
tp1826
(g270
g1
tp1827
g6
g7
tp1828
F5995.6792647879565
s((I0
g1746
tp1829
(S'blocked 3'
p1830
g644
tp1831
g646
g646
tp1832
F-269.2227677424182
s((I0
g4
tp1833
(g3
g9
tp1834
g7
g7
tp1835
F7834.964069348691
s((I1
g9
tp1836
(g70
g66
tp1837
g7
g7
tp1838
F-794.7358171504275
s((I0
g955
tp1839
(g791
g478
tp1840
g88
g88
tp1841
F197.6025327584066
s((I0
g95
tp1842
(g415
g4
tp1843
g6
g7
tp1844
F-6648.990440534694
s((I0
g24
tp1845
(g1130
g21
tp1846
g27
g27
tp1847
F-4961.116942008899
s((I1
g4
tp1848
(g1335
g9
tp1849
g7
g6
tp1850
F3634.7614783870604
s(g3
I7
I00
I00
tp1851
F-4114.8753089445045
s((I0
g40
tp1852
(g42
g43
tp1853
g46
g46
tp1854
F-1841.37897270572
s((I0
g4
tp1855
(g132
g1
tp1856
g7
g7
tp1857
F1650.9053372654698
s((I0
g9
tp1858
(g253
g1
tp1859
g6
g6
tp1860
F2231.088828979431
s((I0
g95
tp1861
(g342
g66
tp1862
g7
g7
tp1863
F3394.9456817438177
s((I0
g66
tp1864
(g132
g63
tp1865
g7
g6
tp1866
F-57.31159623122767
s((I1
g137
tp1867
(g139
g24
tp1868
g26
g27
tp1869
F-3166.725858951449
s((I1
g128
tp1870
(g127
g95
tp1871
g6
g7
tp1872
F1292.992975359679
s((I1
g667
tp1873
(g852
g478
tp1874
g88
g89
tp1875
F654.9821562754097
s((I1
g21
tp1876
(g632
g24
tp1877
g26
g26
tp1878
F-11964.26067339273
s((I1
g1
tp1879
(g70
g66
tp1880
g7
g6
tp1881
F3056.0706237574736
s((I0
g48
tp1882
(g3
g95
tp1883
g6
g6
tp1884
F-2670.8428670669746
s((I0
g195
tp1885
(g589
g245
tp1886
g197
g197
tp1887
F-68.69186583834087
s((I1
g478
tp1888
(g852
g955
tp1889
g89
g88
tp1890
F121.91297888885742
s((I1
g43
tp1891
(g112
g428
tp1892
g45
g45
tp1893
F-7430.6277864720705
s((I0
g33
tp1894
(g35
g36
tp1895
g158
g38
tp1896
F2693.149994036581
s((I1
g63
tp1897
(g364
g63
tp1898
g6
g7
tp1899
F-2624.7769344179815
s((I0
g518
tp1900
(g278
S'10'
p1901
tp1902
g198
g198
tp1903
F-147.5286920994559
s((I1
g86
tp1904
(g852
g955
tp1905
g89
g89
tp1906
F332.025553097362
s((I0
g242
tp1907
(S'blocked 3'
p1908
g192
tp1909
g198
g197
tp1910
F1407.878070436915
s((I1
g95
tp1911
(g1541
g48
tp1912
g6
g7
tp1913
F-15.475663364374896
s((I0
g24
tp1914
(g593
g24
tp1915
g26
g27
tp1916
F-31424.273126491047
s((I1
g128
tp1917
(g127
g95
tp1918
g7
g7
tp1919
F-451.07705723131005
s((I1
g202
tp1920
(g349
g230
tp1921
g148
g148
tp1922
F5916.435050721944
s((I1
g120
tp1923
(g292
g120
tp1924
g228
g228
tp1925
F7679.31658625279
s((I1
g21
tp1926
(g632
g24
tp1927
g27
g26
tp1928
F26869.938613293514
s((I0
g518
tp1929
(g589
S'10'
p1930
tp1931
g198
g198
tp1932
F-190.48084815166922
s((I1
g313
tp1933
(g1531
g614
tp1934
g19
g18
tp1935
F-629.3207880550736
s((I1
g4
tp1936
(g780
g63
tp1937
g7
g6
tp1938
F4331.936198058857
s((I1
g120
tp1939
(g601
g120
tp1940
g124
g124
tp1941
F8552.31335091705
s((I0
g230
tp1942
(g784
g142
tp1943
g148
g147
tp1944
F-5423.59538938763
s((I1
g52
tp1945
(g80
g40
tp1946
g45
g45
tp1947
F-1974.5308782161815
s(g161
I8
I00
I01
tp1948
F289.301939722276
s((I0
g52
tp1949
(g482
g52
tp1950
g46
g46
tp1951
F-12986.589698946167
s((I1
g16
tp1952
(g465
g313
tp1953
g18
g18
tp1954
F-121.68236622074619
s((I0
g48
tp1955
(g161
g48
tp1956
g6
g7
tp1957
F-1043.4018172137178
s((I0
g518
tp1958
(g589
S'10'
p1959
tp1960
g197
g197
tp1961
F1824.3449944653119
s((I1
g16
tp1962
(g465
g13
tp1963
g18
g18
tp1964
F-65.72040937252169
s((I0
g1
tp1965
(g3
g9
tp1966
g7
g6
tp1967
F-567.3717806136096
s(g57
I10
I01
I00
tp1968
F-81.2709312859295
s((I0
g40
tp1969
(g1292
g52
tp1970
g46
g45
tp1971
F-13015.602407939401
s((I1
g95
tp1972
(g755
g63
tp1973
g7
g7
tp1974
F2117.816864460607
s((I0
g184
tp1975
(g186
g499
tp1976
g189
g190
tp1977
F11332.833236274728
s((I0
g4
tp1978
(g597
g117
tp1979
g7
g6
tp1980
F-2241.274541080382
s((I0
g187
tp1981
(S'blocked 4'
p1982
g184
tp1983
g190
g190
tp1984
F27381.175144672023
s((I0
g95
tp1985
(g570
g9
tp1986
g6
g7
tp1987
F26756.323864672322
s((I0
g4
tp1988
(g1243
g48
tp1989
g7
g7
tp1990
F-3316.5427938249486
s((I0
g242
tp1991
(g1751
g521
tp1992
g197
g198
tp1993
F-6031.222979828291
s((I0
g66
tp1994
(g3
g95
tp1995
g6
g6
tp1996
F-5399.73975948005
s((I0
g9
tp1997
(g253
g63
tp1998
g7
g6
tp1999
F-5001.437500094216
s((I1
g4
tp2000
(g577
g63
tp2001
g7
g7
tp2002
F-6832.234769805262
s((I1
g452
tp2003
(g454
g452
tp2004
g325
g326
tp2005
F3615.8578063914524
s((I1
g145
tp2006
(g201
g202
tp2007
g148
g148
tp2008
F13183.750596682534
s((I1
g549
tp2009
(g135
g421
tp2010
g89
g88
tp2011
F2157.9079465471286
s((I0
g117
tp2012
(g161
g128
tp2013
g7
g6
tp2014
F-8.624166786098552
s((I1
g24
tp2015
(g216
g137
tp2016
g26
g27
tp2017
F476.05412157931323
s((I1
g95
tp2018
(g60
g48
tp2019
g6
g7
tp2020
F1021.0190701015724
s((I1
g1
tp2021
(g65
g95
tp2022
g6
g7
tp2023
F5051.0464524804265
s((I0
g117
tp2024
(g161
g4
tp2025
g7
g6
tp2026
F189.39160219416493
s((I1
g63
tp2027
(g127
g48
tp2028
g7
g7
tp2029
F904.7309802073308
s((I1
g9
tp2030
(g127
g66
tp2031
g7
g6
tp2032
F-1060.7082684154984
s((I1
g95
tp2033
(g60
g48
tp2034
g6
g6
tp2035
F2509.8981130946454
s((I0
g195
tp2036
(g589
g245
tp2037
g198
g198
tp2038
F146.02814346554254
s((I1
g117
tp2039
(g127
g117
tp2040
g7
g7
tp2041
F-239.93221719119126
s((I0
g48
tp2042
(g3
g4
tp2043
g6
g7
tp2044
F6036.538753728413
s((I1
g320
tp2045
(g322
g323
tp2046
g326
g326
tp2047
F-1242.7422469572589
s(g557
I1
I01
I01
tp2048
F5210.985017100275
s((I1
g66
tp2049
(g60
g66
tp2050
g6
g7
tp2051
F-1248.6500255298424
s((I1
g145
tp2052
(g473
g142
tp2053
g147
g148
tp2054
F447.09386611356643
s((I1
g4
tp2055
(g60
g48
tp2056
g7
g6
tp2057
F185.09294589585943
s((I1
g52
tp2058
(g469
g428
tp2059
g46
g46
tp2060
F3180.6617970356856
s(g442
I5
I00
I00
tp2061
F2151.129195393114
s((I0
g36
tp2062
(g35
g36
tp2063
g38
g158
tp2064
F-496.92708199656175
s((I0
g48
tp2065
(g3
g9
tp2066
g7
g7
tp2067
F-1659.659495536654
s((I1
g95
tp2068
(g401
g128
tp2069
g6
g7
tp2070
F-1097.4235694358852
s((I0
g1
tp2071
(g3
g4
tp2072
g7
g7
tp2073
F1181.4554378535022
s((I0
g52
tp2074
(g1292
g40
tp2075
g46
g46
tp2076
F-4387.869773930489
s(g122
I2
I00
I01
tp2077
F-7035.295160683699
s((I0
g503
tp2078
(g122
g120
tp2079
g228
g228
tp2080
F13399.403026179336
s((I1
g187
tp2081
(g425
g184
tp2082
g189
g190
tp2083
F-1262.537145286571
s(g139
I3
I00
I00
tp2084
F-5503.959445822367
s((I1
g63
tp2085
(g364
g4
tp2086
g6
g7
tp2087
F-5253.29185038034
s((I0
g117
tp2088
(g161
g117
tp2089
g7
g7
tp2090
F330.01125581483404
s((I1
g120
tp2091
(g292
g503
tp2092
g124
g124
tp2093
F20277.871033953204
s((I0
g83
tp2094
(g666
g667
tp2095
g89
g89
tp2096
F-286.53867833243856
s((I0
g83
tp2097
(g85
g478
tp2098
g89
g88
tp2099
F-472.6042343039524
s((I0
g230
tp2100
(g1034
g145
tp2101
g148
g147
tp2102
F-4021.9967274516825
s(g420
I4
I01
I01
tp2103
F-935.0648249852767
s((I0
g24
tp2104
(g30
g24
tp2105
g26
g26
tp2106
F-86120.59069066998
s((I1
g95
tp2107
(g401
g117
tp2108
g7
g7
tp2109
F69.8322223863259
s((I0
g256
tp2110
(S'blocked 2'
p2111
g521
tp2112
g197
g197
tp2113
F-172.3396002846577
s((I0
g256
tp2114
(S'open 2'
p2115
g192
tp2116
g198
g197
tp2117
F1881.4029005531866
s((I1
g24
tp2118
(g581
g207
tp2119
g26
g26
tp2120
F-15342.715847441057
s((I0
g63
tp2121
(g253
g4
tp2122
g7
g7
tp2123
F-2368.009514139364
s((I0
g117
tp2124
(g161
g128
tp2125
g6
g6
tp2126
F1985.7282276835851
s((I1
g48
tp2127
(g127
g95
tp2128
g7
g7
tp2129
F-1053.1274197352411
s((I0
g9
tp2130
(g253
g95
tp2131
g6
g6
tp2132
F1356.4047945533143
s(g292
I2
I00
I00
tp2133
F-29961.79896107087
s((I0
g418
tp2134
(S'blocked 2'
p2135
g421
tp2136
g88
g89
tp2137
F-2542.604257761157
s((I0
g518
tp2138
(g278
g996
tp2139
g197
g198
tp2140
F-1451.4100749739866
s((I1
g43
tp2141
(g236
g40
tp2142
g46
g45
tp2143
F-438.50929411990353
s((I0
g242
tp2144
(g1461
g521
tp2145
g198
g197
tp2146
F43.43914446792729
s((I0
g187
tp2147
(g1006
g184
tp2148
g189
g190
tp2149
F23562.99642743648
s((I0
g95
tp2150
(g1218
g95
tp2151
g7
g6
tp2152
F14913.70558921166
s((I0
g187
tp2153
(g186
g499
tp2154
g190
g190
tp2155
F9828.060703578363
s((I0
g142
tp2156
(g144
g145
tp2157
g148
g147
tp2158
F-858.4271162475875
s((I0
g52
tp2159
(g54
g40
tp2160
g45
g46
tp2161
F-2675.2007029868482
s((I0
g142
tp2162
(g144
g145
tp2163
g148
g148
tp2164
F15.74782374218303
s((I0
g95
tp2165
(g132
g1
tp2166
g7
g6
tp2167
F1156.705277999292
s((I0
g518
tp2168
(g520
S'10'
p2169
tp2170
g197
g197
tp2171
F553.6361726999793
s((I1
g230
tp2172
(g1439
g142
tp2173
g148
g147
tp2174
F-1047.4579989260092
s((I1
g63
tp2175
(g364
g1
tp2176
g6
g7
tp2177
F-933.2746338639988
s((I1
g117
tp2178
(g127
g95
tp2179
g7
g6
tp2180
F-123.39202917279617
s((I0
g4
tp2181
(g585
g117
tp2182
g7
g6
tp2183
F70.35399192111748
s((I1
g43
tp2184
(g236
g40
tp2185
g45
g45
tp2186
F-17968.884339457265
s((I1
g52
tp2187
(g1257
g43
tp2188
g46
g45
tp2189
F4222.288343373873
s((I0
g192
tp2190
(g194
g195
tp2191
g198
g197
tp2192
F-1647.2526156419665
s((I0
g16
tp2193
(g930
g13
tp2194
g18
g19
tp2195
F-6680.061826441099
s((I0
g503
tp2196
(g122
g120
tp2197
g124
g228
tp2198
F-10851.128612449933
s((I1
g24
tp2199
(g302
g207
tp2200
g27
g26
tp2201
F13492.893047452764
s((I1
g614
tp2202
(S'blocked 2'
p2203
g16
tp2204
g19
g19
tp2205
F897.4588110198081
s(g364
I6
I01
I00
tp2206
F7208.786039960521
s((I1
g63
tp2207
(g364
g1
tp2208
g7
g7
tp2209
F1116.0117587787722
s((I1
g95
tp2210
(g546
g95
tp2211
g7
g6
tp2212
F-6832.179821879949
s((I0
g95
tp2213
(g674
g66
tp2214
g6
g7
tp2215
F-6697.356084909028
s((I0
g4
tp2216
(g1815
g4
tp2217
g7
g7
tp2218
F-36044.91392899807
s(g292
I1
I00
I01
tp2219
F-9728.573106122667
s((I1
g4
tp2220
(g746
g128
tp2221
g7
g7
tp2222
F4194.581973336908
s((I0
g4
tp2223
(g1243
g1
tp2224
g6
g6
tp2225
F1791.0955523836335
s((I0
g24
tp2226
(S'blocked 3'
p2227
g207
tp2228
g27
g27
tp2229
F-2686.745688186566
s((I1
g4
tp2230
(g401
g128
tp2231
g6
g7
tp2232
F-2778.174414647181
s((I1
g48
tp2233
(g127
g117
tp2234
g6
g6
tp2235
F710.8823952702328
s((I1
g357
tp2236
(g359
g357
tp2237
g362
g361
tp2238
F-21069.66375705081
s((I1
g549
tp2239
(g135
g418
tp2240
g89
g89
tp2241
F-6317.303058713963
s((I1
g549
tp2242
(g135
g549
tp2243
g88
g89
tp2244
F1623.7993317229548
s((I1
g242
tp2245
(g1555
g525
tp2246
g197
g197
tp2247
F2639.007916958427
s((I1
g9
tp2248
(g70
g95
tp2249
g7
g6
tp2250
F-2228.6226689387177
s((I1
g421
tp2251
(S'blocked 2'
p2252
g418
tp2253
g89
g89
tp2254
F-1219.6647590605526
s((I1
g95
tp2255
(g1541
g48
tp2256
g6
g6
tp2257
F688.8691694297684
s((I1
g562
tp2258
(g564
g565
tp2259
S'True'
p2260
g2260
tp2261
F363.25734902895516
s((I1
g86
tp2262
(g852
g955
tp2263
g88
g88
tp2264
F-655.0559853798642
s((I1
g117
tp2265
(g127
g95
tp2266
g6
g6
tp2267
F762.0370828411059
s((I1
g256
tp2268
(S'blocked 3'
p2269
g192
tp2270
g197
g197
tp2271
F5313.111002778354
s((I0
g518
tp2272
(g520
g521
tp2273
g197
g198
tp2274
F1074.27879268099
s(g127
I9
I01
I00
tp2275
F-1158.279522515314
s((I1
g63
tp2276
(g364
g9
tp2277
g6
g7
tp2278
F-1268.8370839554445
s((I1
g66
tp2279
(g70
g95
tp2280
g7
g6
tp2281
F3723.6772692740387
s((I1
g4
tp2282
(g60
g1
tp2283
g7
g7
tp2284
F877.0387175774206
s(g42
I4
I01
I00
tp2285
F-4900.378994102267
s((I1
g4
tp2286
(g1335
g1
tp2287
g7
g6
tp2288
F-212.44896534938786
s((I0
g95
tp2289
(g415
g4
tp2290
g6
g6
tp2291
F21385.1019272044
s((I1
g66
tp2292
(g60
g9
tp2293
g6
g6
tp2294
F1399.4377790985172
s(g3
I7
I01
I01
tp2295
F5646.2205477297675
s((I0
g256
tp2296
(g278
g245
tp2297
g197
g198
tp2298
F-302.53036116312876
s((I1
g63
tp2299
(g127
g48
tp2300
g6
g6
tp2301
F-798.9293492339588
s((I0
g36
tp2302
(g35
g36
tp2303
g158
g38
tp2304
F-526.552747647818
s((I0
g95
tp2305
(g415
g95
tp2306
g6
g6
tp2307
F-3545.82036273873
s((I1
g40
tp2308
(g411
g52
tp2309
g46
g46
tp2310
F23809.881097744677
s((I0
g904
tp2311
(g35
g36
tp2312
g158
g38
tp2313
F-7650.095764838913
s((I0
g1746
tp2314
(g1830
g644
tp2315
g172
g172
tp2316
F-43.559593481388305
s(g469
I2
I01
I00
tp2317
F-939.9700064320024
s((I0
g4
tp2318
(S'blocked 3'
p2319
g117
tp2320
g6
g6
tp2321
F2313.7909717505613
s((I0
g1
tp2322
(g3
g9
tp2323
g7
g7
tp2324
F5462.7677878052855
s((I1
g9
tp2325
(g70
g48
tp2326
g7
g7
tp2327
F-6616.71639779368
s((I1
g43
tp2328
(g469
g52
tp2329
g46
g45
tp2330
F-4297.468635861875
s((I0
g95
tp2331
(g132
g1
tp2332
g6
g6
tp2333
F-571.6497375480731
s((I1
g145
tp2334
(g639
g202
tp2335
g147
g148
tp2336
F-1466.7878061342744
s((I0
g95
tp2337
(g132
g63
tp2338
g7
g7
tp2339
F2898.4706884728207
s((I1
g549
tp2340
(g135
g421
tp2341
g88
g88
tp2342
F2983.5252578875547
s((I0
g256
tp2343
(g278
g245
tp2344
g198
g198
tp2345
F-258.5666980670829
s((I1
g43
tp2346
(g112
g40
tp2347
g45
g46
tp2348
F1124.022393413405
s((I0
g1
tp2349
(g253
g63
tp2350
g7
g6
tp2351
F326.52399220945006
s((I1
g95
tp2352
(g1541
g48
tp2353
g7
g7
tp2354
F-572.2052366916636
s((I1
g4
tp2355
(g401
g128
tp2356
g7
g6
tp2357
F751.97546212
s((I1
g43
tp2358
(g112
g43
tp2359
g46
g45
tp2360
F5574.67333348179
s((I0
g1746
tp2361
(g169
g170
tp2362
g172
g646
tp2363
F3339.6161755741737
s((I0
g4
tp2364
(g570
g9
tp2365
g7
g6
tp2366
F6649.666856740217
s((I0
g9
tp2367
(g253
g4
tp2368
g6
g7
tp2369
F-5708.307983008882
s((I0
g4
tp2370
(g295
g95
tp2371
g6
g7
tp2372
F-1360.4187285186931
s((I0
g95
tp2373
(g415
g66
tp2374
g7
g7
tp2375
F1816.5288723428594
s(g3
I5
I01
I00
tp2376
F-195.02917812629528
s((I0
g4
tp2377
(g2319
g128
tp2378
g7
g7
tp2379
F1893.605420766469
s((I1
g614
tp2380
(g465
g313
tp2381
g18
g19
tp2382
F69.61672268091642
s((I1
g21
tp2383
(g139
g24
tp2384
g26
g27
tp2385
F-10171.6244206671
s((I1
g24
tp2386
(S'open 4'
p2387
g21
tp2388
g26
g26
tp2389
F-1549.4831847612143
s((I0
g48
tp2390
(g161
g48
tp2391
g7
g6
tp2392
F141.89053728452654
s((I0
g230
tp2393
(g784
g142
tp2394
g148
g148
tp2395
F11781.04088150901
s((I1
g4
tp2396
(g60
g9
tp2397
g6
g6
tp2398
F-817.8322338967885
s((I1
g549
tp2399
(g420
g83
tp2400
g89
g88
tp2401
F-16131.551238365495
s((I1
g4
tp2402
(g746
g128
tp2403
g6
g7
tp2404
F-2859.1122635024694
s(g3
I7
I00
I01
tp2405
F-7096.293390399702
s((I1
g48
tp2406
(g1615
g66
tp2407
g7
g6
tp2408
F608.3888222246487
s((I1
g120
tp2409
(g838
g120
tp2410
g228
g124
tp2411
F-447.4959203275964
s(g122
I1
I00
I00
tp2412
F-5676.0844693533
s((I1
g320
tp2413
(g322
g323
tp2414
g325
g325
tp2415
F1306.1635547703559
s((I0
g184
tp2416
(g186
g187
tp2417
g190
g189
tp2418
F2050.966482033072
s((I0
g1
tp2419
(g253
g63
tp2420
g6
g7
tp2421
F-939.9421691930795
s((I0
g4
tp2422
(g570
g1
tp2423
g6
g6
tp2424
F-7189.317854612848
s((I1
g95
tp2425
(g401
g128
tp2426
g6
g6
tp2427
F110.92551447975613
s((I1
g4
tp2428
(g401
g117
tp2429
g6
g6
tp2430
F-2506.4468131827934
s((I0
g95
tp2431
(g132
g63
tp2432
g6
g6
tp2433
F-4495.412747747605
s((I0
g242
tp2434
(g776
g521
tp2435
g198
g197
tp2436
F159.7392434093478
s((I1
g63
tp2437
(g364
g95
tp2438
g7
g6
tp2439
F188.19830256399308
s(g411
I3
I01
I01
tp2440
F28736.520888762898
s((I1
g16
tp2441
(g465
g370
tp2442
g18
g19
tp2443
F923.7595982040745
s((I1
g52
tp2444
(g535
g43
tp2445
g46
g45
tp2446
F20996.639712972854
s((I0
g120
tp2447
(g1104
g503
tp2448
g124
g228
tp2449
F5934.137215327755
s((I0
g4
tp2450
(g74
g63
tp2451
g6
g6
tp2452
F-5417.506746081118
s((I0
g120
tp2453
(g557
g120
tp2454
g124
g124
tp2455
F-20536.78236352975
s((I1
g48
tp2456
(g364
g95
tp2457
g6
g7
tp2458
F820.0378960339317
s((I0
g128
tp2459
(g161
g95
tp2460
g6
g7
tp2461
F-214.46577319111748
s((I0
g1
tp2462
(g3
g9
tp2463
g6
g6
tp2464
F-9331.068156173442
s((I1
g145
tp2465
(g639
g142
tp2466
g147
g148
tp2467
F5270.475272858464
s((I0
g128
tp2468
(g161
g117
tp2469
g7
g6
tp2470
F-1952.3991557855775
s(g465
I5
I00
I01
tp2471
F-750.6551048803057
s((I1
g95
tp2472
(g546
g95
tp2473
g6
g7
tp2474
F3763.7031295081824
s((I0
g63
tp2475
(g3
g95
tp2476
g6
g6
tp2477
F29.883804743084966
s((I1
g207
tp2478
(g139
g24
tp2479
g27
g26
tp2480
F7617.70727472158
s((I1
g145
tp2481
(g639
g202
tp2482
g148
g147
tp2483
F-1698.0729211289204
s((I0
g120
tp2484
(g122
g120
tp2485
g228
g124
tp2486
F11956.330098566421
s((I1
g120
tp2487
(g752
g503
tp2488
g228
g124
tp2489
F6931.8073462757575
s(g349
I2
I00
I00
tp2490
F-4504.182232955486
s((I1
g245
tp2491
(g57
g195
tp2492
g197
g197
tp2493
F190.12981030403705
s((I0
g48
tp2494
(g3
g9
tp2495
g6
g7
tp2496
F-2823.1872265680636
s((I0
g120
tp2497
(g122
g503
tp2498
g124
g228
tp2499
F-2830.2310743840217
s((I1
g499
tp2500
(g962
g184
tp2501
g190
g189
tp2502
F12083.623070595111
s((I1
g478
tp2503
(g852
g955
tp2504
g89
g89
tp2505
F-288.69235325309734
s((I1
g63
tp2506
(g364
g63
tp2507
g6
g6
tp2508
F-1683.922181782304
s((I1
g4
tp2509
(g270
g1
tp2510
g7
g6
tp2511
F-804.1469991072054
s((I1
g95
tp2512
(g401
g117
tp2513
g6
g6
tp2514
F-151.2282158933461
s((I0
g36
tp2515
(g35
g36
tp2516
g38
g38
tp2517
F-1722.176263086266
s((I0
g24
tp2518
(g2227
g207
tp2519
g26
g26
tp2520
F-1103.1262120958763
s((I0
g518
tp2521
(g776
g192
tp2522
g198
g197
tp2523
F1429.6321683008637
s((I0
g242
tp2524
(g1641
g525
tp2525
g198
g197
tp2526
F2188.0398926557627
s((I0
g242
tp2527
(g520
g245
tp2528
g197
g198
tp2529
F1616.345313417317
s((I1
g120
tp2530
(S'open 2'
p2531
g120
tp2532
g228
g228
tp2533
F11773.291325215127
s((I1
g443
tp2534
(g978
g323
tp2535
g326
g326
tp2536
F3205.8144992174502
s((I0
g95
tp2537
(g415
g66
tp2538
g6
g7
tp2539
F-4678.246161572561
s((I1
g4
tp2540
(g116
g128
tp2541
g7
g6
tp2542
F-1483.4979081093616
s((I0
g83
tp2543
(g85
g478
tp2544
g88
g89
tp2545
F2693.1275572310255
s((I0
g1
tp2546
(g253
g95
tp2547
g7
g6
tp2548
F82.76236438780325
s((I0
g478
tp2549
(g791
g667
tp2550
g88
g88
tp2551
F-671.8244954811846
s((I1
g36
tp2552
(g274
g36
tp2553
g38
g158
tp2554
F704.918159514458
s((I1
g9
tp2555
(g127
g66
tp2556
g6
g7
tp2557
F-383.1300531155099
s((I0
g95
tp2558
(g570
g1
tp2559
g7
g6
tp2560
F7106.6144997883175
s(g139
I4
I00
I01
tp2561
F3489.386177921837
s((I1
g4
tp2562
(g401
g128
tp2563
g7
g7
tp2564
F2234.599665575911
s((I1
g549
tp2565
(g420
g83
tp2566
g88
g89
tp2567
F973.9688924212297
s((I1
g43
tp2568
(g236
g43
tp2569
g46
g46
tp2570
F-5322.2436192317955
s((I1
g242
tp2571
(S'blocked 3'
p2572
S'10'
p2573
tp2574
g198
g197
tp2575
F656.4591009886058
s((I1
g4
tp2576
(g60
g1
tp2577
g6
g6
tp2578
F-4405.215511393149
s((I1
g9
tp2579
(g70
g95
tp2580
g6
g7
tp2581
F2065.5776436535725
s((I0
g184
tp2582
(g186
g499
tp2583
g190
g189
tp2584
F-10649.886710313893
s((I0
g95
tp2585
(g1218
g95
tp2586
g7
g7
tp2587
F6250.809005392654
s((I0
g323
tp2588
(g442
g320
tp2589
g325
g325
tp2590
F-1565.4179361690215
s((I0
g40
tp2591
(g1292
g40
tp2592
g46
g45
tp2593
F-5525.182773429539
s((I1
g40
tp2594
(g739
g40
tp2595
g46
g46
tp2596
F-979.6259581405752
s((I0
g4
tp2597
(g1243
g48
tp2598
g7
g6
tp2599
F980.6403036927836
s((I1
g43
tp2600
(g112
g428
tp2601
g46
g46
tp2602
F1345.8137914313147
s((I0
g4
tp2603
(g132
g1
tp2604
g6
g6
tp2605
F1454.2827223542492
s((I1
g48
tp2606
(g127
g48
tp2607
g6
g7
tp2608
F562.9031348409133
s((I1
g452
tp2609
(g454
g320
tp2610
g325
g326
tp2611
F28919.50660399615
s(g226
I1
I01
I00
tp2612
F-11330.570640235042
s((I1
g63
tp2613
(g364
g95
tp2614
g6
g7
tp2615
F-1837.2419282005276
s((I1
g503
tp2616
(g292
g120
tp2617
g124
g124
tp2618
F10168.91723152157
s((I0
g66
tp2619
(g3
g95
tp2620
g7
g7
tp2621
F7177.613910133866
s((I1
S'10'
p2622
tp2623
(g57
g242
tp2624
g197
g198
tp2625
F-376.516644849024
s(g139
I3
I00
I01
tp2626
F1090.6507986645795
s((I1
g117
tp2627
(g127
g4
tp2628
g6
g6
tp2629
F267.76991847386415
s((I1
g128
tp2630
(g127
g117
tp2631
g7
g6
tp2632
F4947.831001379271
s((I0
g955
tp2633
(g791
g478
tp2634
g88
g89
tp2635
F-436.73160421486267
s((I1
g320
tp2636
(g322
g323
tp2637
g326
g325
tp2638
F-1332.4693108176348
s((I0
g128
tp2639
(g161
g128
tp2640
g6
g7
tp2641
F-132.31693397067005
s((I1
g4
tp2642
(g401
g117
tp2643
g7
g7
tp2644
F877.4629489708484
s((I0
g955
tp2645
(g791
g478
tp2646
g89
g88
tp2647
F829.5935639134436
s((I0
g48
tp2648
(g161
g63
tp2649
g7
g7
tp2650
F593.4522082695073
s((I0
g24
tp2651
(g332
g207
tp2652
g26
g27
tp2653
F7847.72964418687
s((I1
g614
tp2654
(g465
g313
tp2655
g19
g19
tp2656
F-1614.4394335513275
s((I0
g4
tp2657
(g1815
g63
tp2658
g6
g6
tp2659
F7046.3990032647935
s((I1
g95
tp2660
(g546
g95
tp2661
g6
g6
tp2662
F15228.985051790813
s((I0
g52
tp2663
(g1657
g43
tp2664
g45
g45
tp2665
F3005.546172172012
s((I0
g323
tp2666
(g442
g320
tp2667
g326
g325
tp2668
F251.52242975291892
s((I0
g242
tp2669
(g1160
g525
tp2670
g198
g197
tp2671
F-20.07769186829546
s((I1
g4
tp2672
(g780
g63
tp2673
g7
g7
tp2674
F1100.1036443067105
s((I0
g242
tp2675
(g1908
g521
tp2676
g198
g198
tp2677
F-2867.1444393025417
s((I0
g256
tp2678
(g258
g195
tp2679
g198
g197
tp2680
F5299.655272485332
s((I0
g83
tp2681
(g85
g86
tp2682
g89
g88
tp2683
F-611.3855863545398
s((I1
g36
tp2684
(g274
g33
tp2685
g158
g38
tp2686
F-1563.148976015776
s((I1
g48
tp2687
(g1615
g66
tp2688
g6
g7
tp2689
F694.3196225062601
s(g112
I2
I00
I01
tp2690
F3226.485132370166
s((I0
g4
tp2691
(g585
g48
tp2692
g7
g6
tp2693
F1780.038610155516
s((I1
g4
tp2694
(g746
g117
tp2695
g6
g6
tp2696
F-1049.2998258877556
s((I1
g95
tp2697
(g755
g63
tp2698
g6
g7
tp2699
F-679.9493866860037
s((I0
g904
tp2700
(g35
g36
tp2701
g38
g158
tp2702
F2792.7548984499217
s((I1
g52
tp2703
(g1536
g43
tp2704
g45
g46
tp2705
F669.1713508840762
s((I1
g245
tp2706
(g57
g256
tp2707
g197
g197
tp2708
F-355.6038306148723
s((I1
g4
tp2709
(g1784
g63
tp2710
g7
g7
tp2711
F-7225.880976988788
s((I1
g145
tp2712
(g473
g142
tp2713
g147
g147
tp2714
F4872.237171949158
s((I0
g518
tp2715
(g589
g996
tp2716
g198
g197
tp2717
F2124.8614745095924
s((I0
g117
tp2718
(g161
g128
tp2719
g6
g7
tp2720
F400.74779130173044
s((I0
g117
tp2721
(g161
g48
tp2722
g6
g7
tp2723
F-237.9679851572141
s((I1
g43
tp2724
(g762
g52
tp2725
g45
g45
tp2726
F8789.704889720866
s((I1
g549
tp2727
(g420
g549
tp2728
g89
g88
tp2729
F-2576.76351484352
s((I0
g864
tp2730
(g144
g145
tp2731
g148
g148
tp2732
F598.4180472074514
s((I1
g137
tp2733
(g139
g24
tp2734
g27
g26
tp2735
F-4912.672504979873
s((I0
g95
tp2736
(g342
g48
tp2737
g7
g7
tp2738
F698.0484675620554
s(g226
I1
I00
I01
tp2739
F16872.55175756896
s((I1
g48
tp2740
(g127
g4
tp2741
g7
g7
tp2742
F-2867.6061582865786
s((I0
g95
tp2743
(g342
g66
tp2744
g6
g6
tp2745
F-12378.799703403907
s(g139
I4
I00
I00
tp2746
F-14164.873516016107
s((I1
g357
tp2747
(g77
g357
tp2748
g362
g362
tp2749
F13991.569606966572
s((I1
g549
tp2750
(g135
g549
tp2751
g89
g88
tp2752
F-451.4709690968123
s((I0
g518
tp2753
(g520
g195
tp2754
g197
g198
tp2755
F-2217.545823090821
s((I0
g4
tp2756
(g570
g1
tp2757
g7
g6
tp2758
F-692.6449803244693
s((I0
g518
tp2759
(g520
g525
tp2760
g198
g198
tp2761
F629.8780473105674
s((I0
g117
tp2762
(g161
g128
tp2763
g7
g7
tp2764
F-2751.8820392535144
s((I0
g120
tp2765
(g1104
g120
tp2766
g228
g124
tp2767
F-9948.665336531638
s((I0
g13
tp2768
(g312
g313
tp2769
g19
g18
tp2770
F509.9657679725743
s((I1
g184
tp2771
(g178
g187
tp2772
g190
g189
tp2773
F-5583.33300410932
s((I1
g4
tp2774
(g1784
g9
tp2775
g7
g6
tp2776
F-6038.788666197076
s((I1
g40
tp2777
(g411
g52
tp2778
g45
g46
tp2779
F-26080.23654576008
s((I0
g256
tp2780
(g2115
g192
tp2781
g197
g198
tp2782
F-1207.336789673036
s((I1
g43
tp2783
(g236
g40
tp2784
g45
g46
tp2785
F1805.27233600933
s(g3
I6
I01
I01
tp2786
F7773.694174170533
s((I1
g40
tp2787
(g112
g52
tp2788
g46
g46
tp2789
F-8078.066188385532
s((I0
g48
tp2790
(g3
g66
tp2791
g7
g7
tp2792
F-445.71472067119544
s((I0
g428
tp2793
(g42
g43
tp2794
g45
g46
tp2795
F7374.000802312245
s((I0
g518
tp2796
(g278
g245
tp2797
g197
g197
tp2798
F-897.2304823439766
s((I1
g95
tp2799
(g577
g1
tp2800
g7
g6
tp2801
F2187.4907806436104
s((I1
g120
tp2802
(g292
g120
tp2803
g124
g228
tp2804
F6083.941270894684
s((I0
g242
tp2805
(g1908
g192
tp2806
g198
g198
tp2807
F1018.7064570236082
s(g292
I1
I00
I00
tp2808
F-33473.497840183954
s((I0
g192
tp2809
(g589
g245
tp2810
g198
g198
tp2811
F-1114.6355398617195
s((I1
g128
tp2812
(g127
g128
tp2813
g6
g6
tp2814
F152.48024750429624
s((I1
g418
tp2815
(g420
g549
tp2816
g88
g88
tp2817
F4194.654070608983
s((I1
g95
tp2818
(g1541
g48
tp2819
g7
g6
tp2820
F-358.105762105496
s((I0
g4
tp2821
(g295
g95
tp2822
g7
g6
tp2823
F374.2557989242949
s((I1
g202
tp2824
(g349
g202
tp2825
g147
g147
tp2826
F-3400.4607573842877
s((I0
g24
tp2827
(g23
g24
tp2828
g26
g27
tp2829
F11623.055479819152
s((I0
g117
tp2830
(g161
g48
tp2831
g7
g6
tp2832
F409.3473396052068
s((I1
g187
tp2833
(S'open 4'
p2834
g860
tp2835
g190
g190
tp2836
F-1506.6921168331005
s((I1
g145
tp2837
(g473
g864
tp2838
g147
g148
tp2839
F496.3222451665464
s((I0
g66
tp2840
(g3
g66
tp2841
g6
g6
tp2842
F-8481.74513207009
s((I1
g66
tp2843
(g60
g48
tp2844
g6
g7
tp2845
F-3298.6229919633965
s((I0
g955
tp2846
(g791
g86
tp2847
g89
g88
tp2848
F-924.8994817967109
s((I1
g16
tp2849
(g15
g370
tp2850
g18
g18
tp2851
F2140.756243998396
s((I0
g95
tp2852
(g1218
g95
tp2853
g6
g7
tp2854
F-5642.211982247964
s((I0
g230
tp2855
(g784
g142
tp2856
g147
g147
tp2857
F-9825.596782247278
s((I1
g117
tp2858
(g127
g4
tp2859
g7
g7
tp2860
F-387.3095098732244
s((I1
g95
tp2861
(g755
g63
tp2862
g6
g6
tp2863
F-1164.07999507546
s((I1
g242
tp2864
(S'open 4'
p2865
g245
tp2866
g197
g197
tp2867
F453.71703873339146
s((I1
g66
tp2868
(g60
g1
tp2869
g6
g7
tp2870
F-645.6316867132748
s((I1
g357
tp2871
(g77
g357
tp2872
g361
g361
tp2873
F-20920.837050271788
s((I1
g24
tp2874
(g581
g207
tp2875
g26
g27
tp2876
F-8811.448921983514
s((I1
g4
tp2877
(g60
g9
tp2878
g6
g7
tp2879
F7204.771226390403
s((I1
g52
tp2880
(g112
g43
tp2881
g46
g45
tp2882
F-8428.430906058305
s((I0
g4
tp2883
(g1815
g63
tp2884
g6
g7
tp2885
F1705.379890969321
s((I1
g184
tp2886
(g178
g187
tp2887
g189
g190
tp2888
F10880.84684665579
s((I0
g4
tp2889
(g597
g128
tp2890
g7
g6
tp2891
F-1382.7781051011984
s((I1
g95
tp2892
(g60
g9
tp2893
g6
g7
tp2894
F4786.641108366364
s((I1
g4
tp2895
(g577
g63
tp2896
g7
g6
tp2897
F-1324.9630407465188
s(g349
I2
I01
I01
tp2898
F7135.847473089005
s((I0
g4
tp2899
(g597
g117
tp2900
g7
g7
tp2901
F-3335.7050149703373
s((I1
g48
tp2902
(g364
g4
tp2903
g7
g6
tp2904
F-6344.338126644495
s((I0
g518
tp2905
(g520
g521
tp2906
g197
g197
tp2907
F-298.72664839582046
s((I1
g95
tp2908
(g401
g128
tp2909
g7
g6
tp2910
F1056.1750883547018
s((I1
g95
tp2911
(g577
g63
tp2912
g7
g7
tp2913
F876.6324543921014
s(g420
I4
I01
I00
tp2914
F5503.6897202592245
s((I0
g187
tp2915
(g1982
g184
tp2916
g189
g189
tp2917
F-12933.80950627969
s((I1
g499
tp2918
(g962
g860
tp2919
g190
g190
tp2920
F2691.7920311483113
s((I0
g63
tp2921
(g253
g4
tp2922
g6
g6
tp2923
F406.3967482231453
s((I0
g63
tp2924
(g253
g95
tp2925
g6
g7
tp2926
F-107.62706698999389
s((I0
g63
tp2927
(g253
g63
tp2928
g6
g7
tp2929
F1227.5734568121804
s((I1
g9
tp2930
(g70
g48
tp2931
g7
g6
tp2932
F420.82680249647774
s((I0
g4
tp2933
(g1815
g63
tp2934
g7
g6
tp2935
F-732.1811211786264
s((I0
g52
tp2936
(g1108
g43
tp2937
g45
g45
tp2938
F3932.8675865739056
s((I0
g66
tp2939
(g74
g48
tp2940
g6
g7
tp2941
F-674.946243256192
s((I1
g66
tp2942
(g380
g95
tp2943
g7
g7
tp2944
F3674.1493587155637
s((I1
g117
tp2945
(g127
g128
tp2946
g7
g7
tp2947
F1055.0231510013589
s((I0
g242
tp2948
(S'blocked 4'
p2949
g192
tp2950
g197
g198
tp2951
F20033.997674715236
s((I0
g192
tp2952
(g589
g256
tp2953
g198
g198
tp2954
F-363.52896617974324
s((I0
g518
tp2955
(g1751
g192
tp2956
g197
g198
tp2957
F3396.1058019651773
s((I0
g4
tp2958
(g1243
g48
tp2959
g6
g6
tp2960
F1208.0158378588837
s((I0
g187
tp2961
(g186
g499
tp2962
g189
g189
tp2963
F-4913.911114329968
s((I0
g52
tp2964
(g482
g40
tp2965
g45
g45
tp2966
F5082.860857834243
s((I1
g120
tp2967
(S'open 3'
p2968
g120
tp2969
g228
g124
tp2970
F13213.483769778688
s((I0
g63
tp2971
(g3
g95
tp2972
g7
g7
tp2973
F1521.7658648065194
s((I0
g4
tp2974
(g1815
g63
tp2975
g7
g7
tp2976
F-5821.015382510521
s((I0
g9
tp2977
(g253
g95
tp2978
g7
g7
tp2979
F412.08534875644955
s((I0
g4
tp2980
(g2319
g128
tp2981
g6
g6
tp2982
F12.413619607630608
s((I0
g242
tp2983
(g1908
g192
tp2984
g197
g198
tp2985
F-2249.7403171899914
s((I0
g323
tp2986
(g442
g443
tp2987
g326
g326
tp2988
F1936.016275853802
s((I0
g167
tp2989
(g169
g170
tp2990
g172
g646
tp2991
F-517.0678489262407
s((I0
g195
tp2992
(g589
g245
tp2993
g197
g198
tp2994
F-897.2409110836786
s((I1
g4
tp2995
(g1335
g1
tp2996
g6
g7
tp2997
F-86.90732995188642
s((I0
g40
tp2998
(g42
g52
tp2999
g46
g46
tp3000
F-22550.180130100267
s((I0
g518
tp3001
(g520
g521
tp3002
g198
g197
tp3003
F-5721.238015698027
s((I1
g117
tp3004
(g127
g117
tp3005
g6
g6
tp3006
F-75.57545380146038
s((I1
g4
tp3007
(g151
g128
tp3008
g6
g6
tp3009
F-36.17098099866598
s((I0
g117
tp3010
(g161
g117
tp3011
g6
g7
tp3012
F-257.07023270484785
s((I1
g4
tp3013
(g898
g63
tp3014
g7
g6
tp3015
F-1949.47873796409
s((I0
g95
tp3016
(g415
g66
tp3017
g6
g6
tp3018
F-8831.1500770748
s((I1
g421
tp3019
(g2252
g418
tp3020
g88
g88
tp3021
F757.7320330202118
s((I0
g48
tp3022
(g3
g1
tp3023
g6
g6
tp3024
F421.2090779607301
s((I1
g4
tp3025
(g151
g128
tp3026
g7
g7
tp3027
F-765.0935443991988
s((I0
g4
tp3028
(g396
g63
tp3029
g6
g7
tp3030
F4650.984644119842
s((I1
g43
tp3031
(g469
g43
tp3032
g45
g46
tp3033
F2244.5444158124324
s(g762
I2
I01
I01
tp3034
F2682.9454232045227
s((I1
g95
tp3035
(g60
g9
tp3036
g7
g6
tp3037
F-1555.2290797846927
s((I0
g95
tp3038
(g396
g1
tp3039
g6
g6
tp3040
F-1018.5280294548113
s((I0
g66
tp3041
(g161
g9
tp3042
g6
g6
tp3043
F5099.978648448009
s((I0
g313
tp3044
(g1716
g614
tp3045
g19
g19
tp3046
F246.54915788726277
s((I0
g4
tp3047
(g769
g95
tp3048
g6
g7
tp3049
F17122.949793794385
s((I1
g52
tp3050
(g1536
g43
tp3051
g46
g45
tp3052
F-40.31902440079534
s((I1
g4
tp3053
(g1784
g9
tp3054
g6
g7
tp3055
F7330.960312916061
s((I1
g43
tp3056
(g1586
g43
tp3057
g45
g46
tp3058
F6431.222889925921
s(g420
I5
I00
I00
tp3059
F-15188.818164297369
s((I1
g4
tp3060
(g249
g48
tp3061
g6
g7
tp3062
F3802.3931656578497
s((I0
g955
tp3063
(g791
g478
tp3064
g89
g89
tp3065
F-699.9671166119106
s((I1
g63
tp3066
(g65
g66
tp3067
g6
g6
tp3068
F5435.108305015959
s((I1
g1
tp3069
(g65
g4
tp3070
g6
g6
tp3071
F343.31423248028216
s((I0
g192
tp3072
(g589
g256
tp3073
g197
g197
tp3074
F1355.1895316801704
s((I1
g4
tp3075
(g1402
g48
tp3076
g7
g7
tp3077
F-2235.93438919046
s((I1
g43
tp3078
(g112
g40
tp3079
g45
g45
tp3080
F-6053.597534672865
s((I1
g452
tp3081
(g454
g452
tp3082
g326
g325
tp3083
F-7694.90711762484
s((I1
g16
tp3084
(g465
g13
tp3085
g19
g19
tp3086
F3271.5290976174647
s((I1
g245
tp3087
(g57
g192
tp3088
g197
g197
tp3089
F-3466.330435447272
s((I1
g66
tp3090
(g60
g9
tp3091
g7
g7
tp3092
F-862.0573424807835
s((I0
g4
tp3093
(g585
g117
tp3094
g7
g7
tp3095
F278.2318198583809
s((I0
g66
tp3096
(g132
g63
tp3097
g6
g7
tp3098
F-6109.576166482692
s((I0
g154
tp3099
(g1768
g33
tp3100
g158
g158
tp3101
F1043.7236008953296
s((I1
g9
tp3102
(g70
g1
tp3103
g7
g6
tp3104
F-2218.9370959528733
s(g112
I3
I01
I01
tp3105
F-658.0129790468015
s((I0
g95
tp3106
(g3
g95
tp3107
g6
g7
tp3108
F-11555.654721345505
s((I1
g24
tp3109
(g216
g207
tp3110
g27
g26
tp3111
F392.3475733786434
s((I1
g24
tp3112
(g2387
g21
tp3113
g27
g27
tp3114
F9248.487114544827
s((I1
g4
tp3115
(g60
g48
tp3116
g7
g7
tp3117
F-1337.4307747666167
s((I1
g4
tp3118
(g1402
g48
tp3119
g6
g6
tp3120
F173.97109376505887
s((I1
g48
tp3121
(g127
g95
tp3122
g6
g6
tp3123
F2508.9526219131403
s((I0
g48
tp3124
(g3
g9
tp3125
g7
g6
tp3126
F372.368079977447
s((I1
g120
tp3127
(g838
g120
tp3128
g124
g228
tp3129
F-768.7869325240032
s((I0
g256
tp3130
(g278
g245
tp3131
g197
g197
tp3132
F346.8440993870473
s((I1
g4
tp3133
(g181
g9
tp3134
g6
g7
tp3135
F-8767.358214083002
s((I1
g4
tp3136
(g60
g9
tp3137
g7
g6
tp3138
F-6167.513204961635
s((I0
g128
tp3139
(g161
g4
tp3140
g6
g7
tp3141
F1067.8475807025147
s((I1
g242
tp3142
(g2572
S'10'
p3143
tp3144
g197
g198
tp3145
F-345.77418953086357
s((I1
g614
tp3146
(g2203
g16
tp3147
g18
g18
tp3148
F-1138.7014879984606
s(g752
I1
I01
I00
tp3149
F16094.507395503137
s((I1
g9
tp3150
(g70
g1
tp3151
g6
g6
tp3152
F-2731.605625365706
s((I0
g518
tp3153
(g520
S'10'
p3154
tp3155
g198
g198
tp3156
F-291.6146620894009
s((I1
g128
tp3157
(g127
g4
tp3158
g7
g6
tp3159
F1220.7339058010475
s((I1
g95
tp3160
(g401
g117
tp3161
g7
g6
tp3162
F752.0252714116942
s((I0
g52
tp3163
(g1292
g40
tp3164
g45
g45
tp3165
F7651.125239537034
s((I1
g256
tp3166
(g2269
g192
tp3167
g198
g198
tp3168
F-4309.414725924851
s((I0
g66
tp3169
(g132
g63
tp3170
g7
g7
tp3171
F2868.3126477796177
s((I0
g95
tp3172
(g3
g9
tp3173
g6
g7
tp3174
F1616.7307565455649
s((I0
g120
tp3175
(g122
g503
tp3176
g228
g124
tp3177
F560.3250202980555
s((I0
g230
tp3178
(g262
g145
tp3179
g147
g148
tp3180
F-7393.206229668187
s((I1
g120
tp3181
(g2968
g120
tp3182
g124
g228
tp3183
F-17448.859284924805
s((I0
g323
tp3184
(g442
g320
tp3185
g325
g326
tp3186
F-1821.7775831543986
s((I0
g63
tp3187
(g253
g4
tp3188
g7
g6
tp3189
F-8343.21346436361
s((I1
g117
tp3190
(g127
g95
tp3191
g6
g7
tp3192
F268.31137361656437
s((I1
g549
tp3193
(g135
g83
tp3194
g88
g89
tp3195
F44.06417040291856
s((I1
g120
tp3196
(g601
g120
tp3197
g124
g228
tp3198
F8436.013425051447
s(g442
I5
I00
I01
tp3199
F383.35989902898746
s((I1
g117
tp3200
(g127
g117
tp3201
g7
g6
tp3202
F-174.22209152639553
s((I1
g242
tp3203
(g2865
g245
tp3204
g198
g198
tp3205
F-213.87711305873893
s((I0
g4
tp3206
(g211
g63
tp3207
g6
g6
tp3208
F-775.8601641822179
s((I0
g518
tp3209
(g520
g996
tp3210
g197
g198
tp3211
F-674.3194111648871
s((I1
g614
tp3212
(g465
g313
tp3213
g18
g18
tp3214
F323.95301623992276
s((I1
g36
tp3215
(g274
g36
tp3216
g38
g38
tp3217
F-118.72312753128351
s((I0
g66
tp3218
(g342
g1
tp3219
g7
g6
tp3220
F2399.552202433193
s((I1
g24
tp3221
(g216
g207
tp3222
g26
g27
tp3223
F-1114.374078768686
s((I1
g499
tp3224
(g1183
g184
tp3225
g189
g189
tp3226
F-17970.126830960788
s((I0
g52
tp3227
(g482
g40
tp3228
g46
g46
tp3229
F-2500.4256353679048
s((I0
g1
tp3230
(g253
g95
tp3231
g6
g7
tp3232
F-923.8311373986015
s((I1
g16
tp3233
(g15
g370
tp3234
g19
g19
tp3235
F260.6042505102782
s((I1
g43
tp3236
(g1586
g428
tp3237
g46
g46
tp3238
F2871.7386412613746
s((I0
g518
tp3239
(g520
g195
tp3240
g198
g198
tp3241
F531.6883327459557
s((I0
g418
tp3242
(g2135
g421
tp3243
g89
g88
tp3244
F1052.180036864267
s((I1
g195
tp3245
(g1214
g192
tp3246
g198
g198
tp3247
F3700.392315650958
s((I1
g154
tp3248
(g1634
g36
tp3249
g158
g158
tp3250
F-659.7271863388464
s((I0
g428
tp3251
(g42
g43
tp3252
g46
g45
tp3253
F-12432.151153963057
s((I1
g549
tp3254
(g420
g549
tp3255
g88
g89
tp3256
F273.3534820039881
s((I0
g4
tp3257
(g769
g117
tp3258
g6
g7
tp3259
F325.8227968390958
s((I0
g4
tp3260
(g1243
g48
tp3261
g6
g7
tp3262
F289.74212003116963
s((I0
g95
tp3263
(g282
g4
tp3264
g7
g7
tp3265
F22453.541409518068
s((I1
g48
tp3266
(g127
g48
tp3267
g7
g6
tp3268
F188.7474482009918
s(g442
I5
I01
I00
tp3269
F-2252.930836652229
s(g135
I4
I01
I01
tp3270
F10078.591660066717
s((I0
g478
tp3271
(g791
g667
tp3272
g89
g89
tp3273
F1137.4577017194872
s((I0
g48
tp3274
(g161
g48
tp3275
g7
g7
tp3276
F646.1898231592113
s((I1
g48
tp3277
(g1615
g66
tp3278
g6
g6
tp3279
F2741.256172008141
s((I0
g242
tp3280
(g2949
g192
tp3281
g198
g197
tp3282
F-5395.047770297472
s((I0
g518
tp3283
(g589
g996
tp3284
g197
g198
tp3285
F-734.2725106025033
s((I0
g9
tp3286
(g253
g1
tp3287
g7
g7
tp3288
F-991.2343474456438
s((I1
g63
tp3289
(g364
g1
tp3290
g7
g6
tp3291
F647.4797002660093
s((I1
g187
tp3292
(g2834
g860
tp3293
g189
g189
tp3294
F827.5417367532267
s(g178
I3
I01
I00
tp3295
F-4967.995738202609
s((I0
g4
tp3296
(g570
g9
tp3297
g6
g7
tp3298
F-4812.664798195106
s((I0
g95
tp3299
(g282
g95
tp3300
g7
g7
tp3301
F13526.67388926407
s((I0
g21
tp3302
(g23
g24
tp3303
g27
g26
tp3304
F-16311.4499692146
s((I0
g518
tp3305
(g520
g245
tp3306
g198
g197
tp3307
F2070.7513144396944
s((I0
g518
tp3308
(g278
S'10'
p3309
tp3310
g197
g197
tp3311
F2792.9618870233307
s((I0
g16
tp3312
(g613
g614
tp3313
g19
g18
tp3314
F-157.94185838465148
s((I0
g40
tp3315
(g42
g43
tp3316
g46
g45
tp3317
F-19522.283513593728
s((I0
g66
tp3318
(g74
g48
tp3319
g7
g7
tp3320
F1619.2284028427391
s((I1
g4
tp3321
(g621
g63
tp3322
g6
g7
tp3323
F13230.411795149343
s((I1
g52
tp3324
(g112
g43
tp3325
g45
g46
tp3326
F6576.2083764525705
s((I0
g24
tp3327
(g593
g207
tp3328
g27
g26
tp3329
F6830.700945246583
s((I0
g242
tp3330
(g520
g245
tp3331
g198
g197
tp3332
F-2424.926330522555
s((I1
g4
tp3333
(g151
g117
tp3334
g6
g6
tp3335
F-1686.6423489634813
s((I1
g48
tp3336
(g364
g95
tp3337
g7
g6
tp3338
F-1926.5551110099873
s((I0
g242
tp3339
(g1908
g521
tp3340
g197
g197
tp3341
F3711.835021350991
s((I0
g167
tp3342
(g169
g170
tp3343
g646
g646
tp3344
F-1258.8214892851752
s(g359
I1
I00
I01
tp3345
F-73887.87933666365
s((I0
g4
tp3346
(g295
g95
tp3347
g7
g7
tp3348
F-9364.863966426139
s((I0
g518
tp3349
(g520
g996
tp3350
g198
g197
tp3351
F764.5947764889228
s((I0
g955
tp3352
(g791
g86
tp3353
g88
g89
tp3354
F617.7894950264405
s((I0
g48
tp3355
(g161
g63
tp3356
g7
g6
tp3357
F-1128.0399806898492
s((I1
g52
tp3358
(g108
g40
tp3359
g46
g45
tp3360
F50689.22190125085
s(g359
I1
I01
I01
tp3361
F90263.57906209391
s((I1
g4
tp3362
(g746
g128
tp3363
g6
g6
tp3364
F-3995.1297876522012
s((I1
g66
tp3365
(g60
g48
tp3366
g6
g6
tp3367
F-183.71403385842723
s((I0
g256
tp3368
(g278
g192
tp3369
g198
g198
tp3370
F-718.5746387607693
s((I1
g43
tp3371
(g1586
g428
tp3372
g45
g45
tp3373
F-636.6122388804431
s((I0
g4
tp3374
(g396
g48
tp3375
g7
g7
tp3376
F3768.97227867497
s((I0
g192
tp3377
(g589
g245
tp3378
g197
g197
tp3379
F-965.1591699036655
s((I1
g667
tp3380
(g852
g478
tp3381
g89
g89
tp3382
F1260.8443209879308
s((I0
g256
tp3383
(g2111
g521
tp3384
g198
g198
tp3385
F801.2089485295628
s((I0
g242
tp3386
(g1751
g521
tp3387
g198
g197
tp3388
F5298.192351621356
s((I0
g63
tp3389
(g253
g63
tp3390
g6
g6
tp3391
F5387.505080335763
s((I1
g9
tp3392
(g70
g48
tp3393
g6
g7
tp3394
F-611.7729137657451
s((I0
g128
tp3395
(g161
g95
tp3396
g7
g6
tp3397
F264.80085025541774
s((I1
g36
tp3398
(g274
g33
tp3399
g158
g158
tp3400
F-2834.74212485266
s((I1
g120
tp3401
(g226
g120
tp3402
g124
g124
tp3403
F3458.688174288918
s((I1
g24
tp3404
(g581
g207
tp3405
g27
g27
tp3406
F16072.981224506322
s((I1
g418
tp3407
(g420
g549
tp3408
g89
g89
tp3409
F-3480.0898421238803
s((I0
g95
tp3410
(g415
g95
tp3411
g7
g7
tp3412
F-3692.575743379421
s((I0
g4
tp3413
(g597
g128
tp3414
g7
g7
tp3415
F-2905.7697019297157
s((I1
g66
tp3416
(g60
g48
tp3417
g7
g6
tp3418
F1566.8834984209761
s((I0
g66
tp3419
(g342
g1
tp3420
g6
g7
tp3421
F-4015.1961488681563
s((I0
g167
tp3422
(g169
g644
tp3423
g646
g172
tp3424
F3275.2859876855773
s((I0
g230
tp3425
(g1034
g145
tp3426
g147
g148
tp3427
F539.6839904618291
s((I1
g4
tp3428
(g1496
g48
tp3429
g6
g7
tp3430
F-213.66242513550287
s((I0
g518
tp3431
(g520
g195
tp3432
g197
g197
tp3433
F731.3123293404101
s((I0
g4
tp3434
(g2319
g117
tp3435
g7
g7
tp3436
F-1994.7965083123356
s((I0
g256
tp3437
(g278
g245
tp3438
g198
g197
tp3439
F-326.56889942868804
s((I0
g323
tp3440
(g442
g320
tp3441
g326
g326
tp3442
F3278.660563013435
s((I1
g24
tp3443
(g216
g137
tp3444
g27
g26
tp3445
F-406.22108761227355
s((I0
g503
tp3446
(g122
g120
tp3447
g228
g124
tp3448
F13584.149431615311
s((I1
g4
tp3449
(g1551
g1
tp3450
g6
g7
tp3451
F-3420.399890992654
s((I1
g187
tp3452
(g425
g184
tp3453
g190
g189
tp3454
F1249.7202191665015
s((I1
g1
tp3455
(g1615
g66
tp3456
g6
g6
tp3457
F870.1184028846246
s((I1
g16
tp3458
(g15
g16
tp3459
g19
g19
tp3460
F407.19414142231
s((I0
g904
tp3461
(g906
g907
tp3462
g158
g158
tp3463
F-2053.3315227919416
s((I0
g66
tp3464
(g161
g9
tp3465
g7
g6
tp3466
F8830.834244975962
s((I1
g66
tp3467
(g70
g66
tp3468
g6
g7
tp3469
F596.5498346413958
s((I1
g549
tp3470
(g135
g418
tp3471
g88
g88
tp3472
F3852.1619999263025
s((I1
g313
tp3473
(g1531
g1532
tp3474
g18
g18
tp3475
F1965.569162951729
s((I1
g24
tp3476
(g1094
g207
tp3477
g27
g27
tp3478
F1582.6799469076952
s((I1
g1
tp3479
(g65
g95
tp3480
g7
g6
tp3481
F-1300.966655166365
s((I1
g4
tp3482
(g60
g1
tp3483
g7
g6
tp3484
F-2990.182180526307
s((I0
g1
tp3485
(g253
g95
tp3486
g7
g7
tp3487
F-337.72242195389987
s((I0
g4
tp3488
(g1134
g117
tp3489
g6
g7
tp3490
F-169.93093633400568
s((I0
g52
tp3491
(g54
g40
tp3492
g46
g45
tp3493
F1031.4052648851055
s((I1
g245
tp3494
(g57
g256
tp3495
g198
g198
tp3496
F-142.35481080568326
s((I0
g4
tp3497
(g769
g128
tp3498
g6
g7
tp3499
F7381.505955604567
s((I0
g128
tp3500
(g161
g117
tp3501
g6
g7
tp3502
F747.2155011215208
s((I1
g4
tp3503
(g60
g48
tp3504
g6
g7
tp3505
F587.4481610132443
s(g127
I9
I00
I00
tp3506
F7861.413110506458
s((I1
g4
tp3507
(g1402
g48
tp3508
g6
g7
tp3509
F4162.343643517833
s((I1
g614
tp3510
(g465
g370
tp3511
g18
g19
tp3512
F18.249606150464388
s((I0
g9
tp3513
(g3
g95
tp3514
g6
g7
tp3515
F-6376.550343686413
s((I1
g48
tp3516
(g127
g48
tp3517
g7
g7
tp3518
F-1197.7826983320738
s((I1
g95
tp3519
(g1541
g9
tp3520
g7
g6
tp3521
F2745.3059544301996
s(g411
I3
I00
I01
tp3522
F-5184.470906380694
s((I0
g4
tp3523
(g585
g117
tp3524
g6
g7
tp3525
F29.849014303404942
s((I1
g48
tp3526
(g364
g1
tp3527
g6
g7
tp3528
F1079.6950233477871
s((I1
g24
tp3529
(g216
g207
tp3530
g26
g26
tp3531
F3298.1250325839496
s((I1
g48
tp3532
(g1615
g66
tp3533
g7
g7
tp3534
F-2114.1409321182964
s((I0
g242
tp3535
(g1908
g192
tp3536
g197
g197
tp3537
F-573.5941149613545
s((I1
S'10'
p3538
tp3539
(g57
g518
tp3540
g198
g197
tp3541
F602.8594398409972
s((I1
g120
tp3542
(g2531
g120
tp3543
g124
g124
tp3544
F-19754.48337229044
s((I0
g95
tp3545
(g282
g4
tp3546
g6
g6
tp3547
F-24735.865133724903
s((I1
g40
tp3548
(g112
g40
tp3549
g45
g45
tp3550
F-3578.74333478301
s(g601
I1
I00
I00
tp3551
F-99825.67575290259
s((I0
g117
tp3552
(g161
g95
tp3553
g7
g7
tp3554
F-187.65360718899885
s((I0
g40
tp3555
(g1292
g52
tp3556
g45
g46
tp3557
F9346.104669430806
s((I0
g478
tp3558
(g791
g667
tp3559
g89
g88
tp3560
F-622.8027218252182
s.