(dp0
(S'blocked 2'
p1
I15
I01
I00
tp2
F710.8436600853887
s(S'blocked 2'
p3
I1
I01
I00
tp4
F-2683.814755718705
s(S'blocked 2'
p5
I6
I00
I00
tp6
F2945.5063664379136
s(S'blocked 3'
p7
I5
I01
I00
tp8
F7322.23064611499
s(S'blocked 2'
p9
I19
I01
I00
tp10
F-339.4110325639312
s(g7
I5
I00
I01
tp11
F-7581.898362738081
s(S'open 3'
p12
I3
I01
I01
tp13
F3771.8668942057307
s(g3
I3
I00
I01
tp14
F2139.1830974852965
s(S'blocked 3'
p15
I5
I00
I00
tp16
F-33274.21789998262
s(S'blocked 2'
p17
I8
I01
I01
tp18
F2504.727977388148
s(S'blocked 2'
p19
I5
I01
I01
tp20
F-2358.95143926461
s(S'blocked 2'
p21
I10
I00
I01
tp22
F1776.006855479231
s(S'open 2'
p23
I5
I00
I00
tp24
F-16046.88244748061
s(g15
I4
I01
I00
tp25
F41779.47388178852
s(S'open 3'
p26
I1
I00
I00
tp27
F-47556.680665256805
s(S'blocked 2'
p28
I7
I00
I00
tp29
F2647.707991436269
s(S'blocked 4'
p30
I2
I01
I01
tp31
F9900.60511316761
s(S'blocked 2'
p32
I12
I01
I00
tp33
F-1784.20346171002
s(S'open 2'
p34
I1
I00
I01
tp35
F-9685.641334115926
s(S'blocked 3'
p36
I2
I00
I01
tp37
F-24941.014702203156
s(g9
I16
I01
I00
tp38
F540.452208570677
s(g23
I4
I00
I00
tp39
F-13359.60621214308
s(S'open 2'
p40
I3
I01
I00
tp41
F13376.926728034578
s(g26
I2
I00
I00
tp42
F-56714.92565375088
s(S'blocked 2'
p43
I4
I00
I00
tp44
F-4023.443402849457
s(S'blocked 3'
p45
I7
I01
I00
tp46
F-1362.4427249094474
s(S'blocked 2'
p47
I13
I01
I00
tp48
F-1316.550410979505
s(S'blocked 2'
p49
I17
I01
I00
tp50
F133.32453408129234
s(g1
I15
I00
I01
tp51
F-489.7690546746762
s(g40
I2
I01
I00
tp52
F13008.338687588144
s(g3
I1
I00
I01
tp53
F2964.7475774177487
s(g5
I6
I01
I01
tp54
F-1866.93303799588
s(g3
I3
I01
I01
tp55
F8315.91490059339
s(g17
I8
I00
I01
tp56
F7409.4498113256095
s(g9
I19
I00
I01
tp57
F228.90957599705774
s(g9
I21
I01
I01
tp58
F-639.6755439575246
s(g45
I6
I01
I00
tp59
F988.6103458039917
s(g12
I3
I00
I00
tp60
F-3519.4939514384023
s(g36
I1
I00
I00
tp61
F-11637.327999130499
s(g19
I5
I00
I00
tp62
F3441.2723155685812
s(g21
I10
I01
I00
tp63
F-2145.402649104904
s(g23
I5
I01
I01
tp64
F20056.79968232516
s(g30
I2
I00
I01
tp65
F-2227.5398236249207
s(S'open 2'
p66
I7
I00
I01
tp67
F904.1102964818828
s(g15
I4
I00
I01
tp68
F-42326.14725388698
s(g36
I2
I01
I01
tp69
F28251.56625325081
s(g34
I1
I01
I00
tp70
F9735.213836680181
s(g21
I11
I01
I00
tp71
F-728.8225987963622
s(g43
I2
I00
I00
tp72
F-9519.044223613
s(g9
I20
I00
I00
tp73
F-475.9050701869378
s(g26
I2
I01
I01
tp74
F57274.51219556611
s(S'blocked 4'
p75
I1
I01
I00
tp76
F41588.104099396136
s(g1
I15
I01
I01
tp77
F-2346.1477575053063
s(g9
I21
I00
I00
tp78
F844.5108296176916
s(g43
I4
I01
I01
tp79
F4700.601300571691
s(g43
I1
I01
I01
tp80
F4281.000174128503
s(g5
I6
I00
I01
tp81
F12667.759020200521
s(g49
I17
I00
I01
tp82
F-45.83335531773406
s(g9
I19
I01
I01
tp83
F-82.15531990936928
s(S'blocked 3'
p84
I3
I00
I00
tp85
F-42195.44089488954
s(g40
I2
I00
I01
tp86
F-12798.760192681844
s(g3
I3
I00
I00
tp87
F-7708.058970287903
s(g17
I8
I01
I00
tp88
F-6977.802251126357
s(g23
I5
I00
I01
tp89
F-854.9269336040948
s(g45
I6
I00
I01
tp90
F-805.3361945288821
s(g36
I1
I01
I01
tp91
F11030.018861346447
s(g15
I4
I01
I01
tp92
F48457.39775048549
s(g30
I2
I01
I00
tp93
F2867.0137612087265
s(g66
I7
I01
I00
tp94
F-1067.5811657769123
s(g21
I9
I01
I00
tp95
F-2932.709183437069
s(g36
I2
I00
I00
tp96
F-29212.28453822212
s(g1
I14
I00
I00
tp97
F-1389.8495640958397
s(S'open 4'
p98
I1
I00
I00
tp99
F-150164.32059290318
s(g9
I21
I00
I01
tp100
F419.63317757084917
s(g9
I18
I00
I00
tp101
F257.37216603583323
s(g12
I4
I01
I01
tp102
F-1454.498826639638
s(g26
I2
I00
I01
tp103
F-5954.785834011726
s(g23
I6
I01
I00
tp104
F-4231.002155563485
s(g43
I2
I01
I01
tp105
F10058.669857145202
s(g43
I4
I00
I01
tp106
F5152.865448364034
s(g9
I20
I01
I01
tp107
F544.1390347054711
s(g9
I17
I01
I01
tp108
F-315.1362208463867
s(g75
I1
I00
I01
tp109
F-41741.26182769771
s(g1
I15
I00
I00
tp110
F2471.971025314719
s(g40
I2
I01
I01
tp111
F21291.665350123076
s(g43
I1
I00
I00
tp112
F-3892.9518862600676
s(g5
I6
I01
I00
tp113
F-11415.355927334029
s(g9
I19
I00
I00
tp114
F142.4438849434802
s(g84
I3
I01
I01
tp115
F41306.73332331264
s(S'blocked 3'
p116
I6
I01
I01
tp117
F6627.9468893146395
s(g36
I1
I00
I01
tp118
F-11244.504860408475
s(g26
I1
I01
I00
tp119
F40829.12204150407
s(g23
I5
I01
I00
tp120
F-249.9216816325487
s(g28
I7
I01
I00
tp121
F-12167.439286572544
s(g15
I4
I00
I00
tp122
F-49291.493301753886
s(g21
I12
I00
I00
tp123
F-1485.3088089622372
s(g9
I16
I00
I00
tp124
F-276.64269018463
s(g21
I9
I00
I01
tp125
F3521.056680052725
s(g1
I14
I01
I01
tp126
F1454.4154577171403
s(g12
I4
I00
I01
tp127
F-918.1118447475654
s(S'open 2'
p128
I4
I01
I00
tp129
F3313.8799503941505
s(S'open 2'
p130
I3
I00
I00
tp131
F-21761.783045449443
s(g98
I1
I01
I01
tp132
F150808.84656350504
s(g3
I2
I00
I01
tp133
F279.63694212978317
s(g9
I18
I01
I01
tp134
F-257.30815142192546
s(g9
I20
I00
I01
tp135
F445.96512923759155
s(g45
I7
I00
I00
tp136
F-4358.43386315731
s(g26
I2
I01
I00
tp137
F3815.9804947743673
s(g23
I6
I00
I01
tp138
F4919.192602287738
s(g75
I1
I01
I01
tp139
F100731.70443737383
s(g43
I4
I01
I00
tp140
F-4485.020572422632
s(g9
I17
I00
I00
tp141
F322.11204102623424
s(g1
I14
I01
I00
tp142
F127.62961919985202
s(g15
I5
I01
I01
tp143
F33608.496185482756
s(S'blocked 3'
p144
I8
I01
I01
tp145
F632.7208139401514
s(g84
I3
I00
I01
tp146
F-40055.71145099137
s(g40
I2
I00
I00
tp147
F-21098.835548323786
s(g12
I3
I01
I00
tp148
F2523.9013709762203
s(g21
I11
I01
I01
tp149
F3812.8811691546603
s(g43
I5
I01
I00
tp150
F-11356.838359541407
s(g116
I6
I00
I00
tp151
F-7134.010862065008
s(g21
I10
I00
I00
tp152
F-5250.307067518783
s(g36
I1
I01
I00
tp153
F10722.797905358597
s(g12
I4
I00
I00
tp154
F1097.883474420828
s(g26
I1
I00
I01
tp155
F-40800.472267470155
s(g28
I7
I00
I01
tp156
F12812.366548054797
s(g21
I12
I01
I01
tp157
F1559.8225367209147
s(g21
I9
I01
I01
tp158
F7397.1396264465875
s(g1
I14
I00
I01
tp159
F-192.79503371764483
s(g34
I1
I00
I00
tp160
F-14463.762835338377
s(g98
I1
I00
I01
tp161
F-119666.00820492502
s(g9
I16
I01
I01
tp162
F310.0662322573982
s(g9
I18
I00
I01
tp163
F-282.492675436621
s(g21
I11
I00
I00
tp164
F-4118.623658302261
s(g12
I4
I01
I00
tp165
F749.13081563471
s(g128
I4
I00
I01
tp166
F-4495.1628142692125
s(g130
I3
I01
I01
tp167
F21951.719559352703
s(S'open 2'
p168
I6
I01
I01
tp169
F5593.775373813546
s(g21
I11
I00
I01
tp170
F108.41848918301608
s(g9
I20
I01
I00
tp171
F-565.561825191639
s(g45
I7
I01
I01
tp172
F4657.460180729408
s(g75
I1
I00
I00
tp173
F-100798.86321788975
s(g1
I13
I01
I01
tp174
F-873.5586080226611
s(g3
I3
I01
I00
tp175
F-1784.4263214645634
s(g144
I8
I00
I00
tp176
F-745.4128721089982
s(g17
I8
I00
I00
tp177
F-1905.6267022426323
s(g84
I3
I01
I00
tp178
F39186.77681796833
s(g9
I21
I01
I00
tp179
F-639.4667819267286
s(g12
I3
I00
I01
tp180
F-2518.431814995009
s(g3
I2
I01
I00
tp181
F113.39663033241033
s(g26
I1
I01
I01
tp182
F47823.04961358767
s(g43
I5
I00
I01
tp183
F12307.991476100347
s(g21
I10
I01
I01
tp184
F4882.2023944992325
s(g28
I7
I01
I01
tp185
F-1763.0464732158214
s(g30
I2
I00
I00
tp186
F-9880.966366815495
s(g32
I12
I00
I01
tp187
F2464.7269067023663
s(g36
I2
I01
I00
tp188
F24106.43179892905
s(g1
I13
I00
I00
tp189
F965.316223364463
s(g9
I16
I00
I01
tp190
F-536.5513608751687
s(g21
I9
I00
I00
tp191
F-6932.967842728669
s(g47
I13
I00
I01
tp192
F1490.379553795526
s(g34
I1
I01
I01
tp193
F14514.146416743668
s(g23
I4
I01
I01
tp194
F12914.711792531854
s(g40
I3
I00
I01
tp195
F-13112.479190980835
s(g98
I1
I01
I00
tp196
F119497.39246680448
s(g9
I18
I01
I00
tp197
F271.55265962926376
s(g45
I7
I00
I01
tp198
F1920.0271437425915
s(g168
I6
I00
I00
tp199
F-5797.252686638303
s.